0 1 2 3 4 cmp r3, #1 {}
1 2 3 4 5 bne.w #0x4006e74 {bmispred}
4 5 6 7 8 mov.w r8, #1 {}
5 6 7 8 10 ldr r3, [sp, #0x9c] {}
6 7 10 11 12 cmp r3, #0 {load-use}
7 10 11 12 13 ite eq {}
10 11 12 13 14 moveq r3, #0 {}
11 12 13 14 15 andne r3, r8, #1 {}
12 13 14 15 16 cbz r3, #0x4006e98 {}
13 14 15 16 18 ldr r3, [sp, #0x9c] {}
14 15 18 19 21 ldr r0, [r3, #0xc] {load-use}
15 18 21 22 23 cbz r0, #0x4006e98 {load-use, bmispred}
22 23 24 25 26 adds r5, #1 {}
23 24 25 26 27 cmp r11, r5 {}
24 25 26 27 28 bhi #0x4006df6 {bmispred}
27 28 29 30 32 ldr r3, [r6], #4 {}
28 29 32 33 35 ldr r4, [r3, #0x14] {load-use}
29 32 35 36 37 cmp r4, r9 {load-use}
32 35 36 37 38 beq #0x4006e98 {}
35 36 37 38 39 ands r10, r7, #2 {}
36 37 38 39 40 beq #0x4006e0e {bmispred}
39 40 41 42 44 ldrb.w r3, [r4, #0x195] {}
40 41 44 45 46 lsls r2, r3, #0x1a {load-use}
41 44 45 46 47 bmi #0x4006e98 {}
44 45 46 47 49 ldr r3, [sp, #0x20] {}
45 46 49 50 52 ldr r3, [r3] {load-use}
46 49 52 53 54 lsls r3, r3, #0x1c {load-use}
49 52 53 54 55 bmi #0x4006ea6 {}
52 53 54 55 57 ldr.w r1, [r4, #0x178] {}
53 54 57 58 59 cmp r1, #0 {load-use}
54 57 58 59 60 beq #0x4006e98 {}
57 58 59 60 62 ldr r2, [r4, #0x38] {}
58 59 60 62 63 movs r0, #0 {}
59 60 62 63 65 ldr r3, [r4, #0x34] {}
60 62 63 65 67 ldr.w lr, [r4, #0x184] {}
62 63 65 67 69 ldr r2, [r2, #4] {}
63 65 67 69 71 ldr r3, [r3, #4] {}
65 67 69 71 73 str r0, [sp, #0x60] {}
67 69 71 73 75 str r2, [sp, #0x38] {}
69 71 73 75 77 str r3, [sp, #0x24] {}
71 73 75 77 79 str r0, [sp, #0x64] {}
73 75 77 79 80 cmp.w lr, #0 {}
75 77 79 80 81 beq #0x4006ed2 {}
77 79 80 81 83 ldr.w r3, [r4, #0x180] {}
79 80 81 83 85 ldr.w r0, [r4, #0x17c] {}
80 81 83 85 87 ldr r2, [sp, #0x28] {}
81 83 85 87 89 str r3, [sp, #0x2c] {}
83 85 87 89 91 ldr r3, [sp, #0x30] {}
85 87 89 91 92 and r12, r2, #0x1f {}
87 89 91 92 93 ands r0, r3 {}
89 91 92 93 95 ldr r3, [sp, #0x2c] {}
91 92 93 95 97 ldr.w r0, [lr, r0, lsl #2] {}
92 93 95 97 98 lsr.w r3, r2, r3 {}
93 95 97 98 99 and r3, r3, #0x1f {}
95 97 98 99 100 mov r2, r12 {}
97 98 99 100 101 lsr.w r3, r0, r3 {}
98 99 100 101 102 lsrs r0, r2 {}
99 100 101 102 103 ands r3, r0 {}
100 101 102 103 104 lsls r0, r3, #0x1f {}
101 102 103 104 105 bmi.w #0x4007180 {}
102 103 104 105 106 mov.w r8, #1 {}
103 104 105 106 108 ldr r3, [sp, #0x9c] {}
104 105 108 109 110 cmp r3, #0 {load-use}
105 108 109 110 111 ite eq {}
108 109 110 111 112 moveq r3, #0 {}
109 110 111 112 113 andne r3, r8, #1 {}
110 111 112 113 114 cbz r3, #0x4006e98 {}
111 112 113 114 116 ldr r3, [sp, #0x9c] {}
112 113 116 117 119 ldr r0, [r3, #0xc] {load-use}
113 116 119 120 121 cbz r0, #0x4006e98 {load-use, bmispred}
120 121 122 123 124 adds r5, #1 {}
121 122 123 124 125 cmp r11, r5 {}
122 123 124 125 126 bhi #0x4006df6 {bmispred}
125 126 127 128 130 ldr r3, [r6], #4 {}
126 127 130 131 133 ldr r4, [r3, #0x14] {load-use}
127 130 133 134 135 cmp r4, r9 {load-use}
130 133 134 135 136 beq #0x4006e98 {}
133 134 135 136 137 ands r10, r7, #2 {}
134 135 136 137 138 beq #0x4006e0e {bmispred}
137 138 139 140 142 ldrb.w r3, [r4, #0x195] {}
138 139 142 143 144 lsls r2, r3, #0x1a {load-use}
139 142 143 144 145 bmi #0x4006e98 {}
142 143 144 145 147 ldr r3, [sp, #0x20] {}
143 144 147 148 150 ldr r3, [r3] {load-use}
144 147 150 151 152 lsls r3, r3, #0x1c {load-use}
147 150 151 152 153 bmi #0x4006ea6 {}
150 151 152 153 155 ldr.w r1, [r4, #0x178] {}
151 152 155 156 157 cmp r1, #0 {load-use}
152 155 156 157 158 beq #0x4006e98 {}
155 156 157 158 160 ldr r2, [r4, #0x38] {}
156 157 158 160 161 movs r0, #0 {}
157 158 160 161 163 ldr r3, [r4, #0x34] {}
158 160 161 163 165 ldr.w lr, [r4, #0x184] {}
160 161 163 165 167 ldr r2, [r2, #4] {}
161 163 165 167 169 ldr r3, [r3, #4] {}
163 165 167 169 171 str r0, [sp, #0x60] {}
165 167 169 171 173 str r2, [sp, #0x38] {}
167 169 171 173 175 str r3, [sp, #0x24] {}
169 171 173 175 177 str r0, [sp, #0x64] {}
171 173 175 177 178 cmp.w lr, #0 {}
173 175 177 178 179 beq #0x4006ed2 {}
175 177 178 179 181 ldr.w r3, [r4, #0x180] {}
177 178 179 181 183 ldr.w r0, [r4, #0x17c] {}
178 179 181 183 185 ldr r2, [sp, #0x28] {}
179 181 183 185 187 str r3, [sp, #0x2c] {}
181 183 185 187 189 ldr r3, [sp, #0x30] {}
183 185 187 189 190 and r12, r2, #0x1f {}
185 187 189 190 191 ands r0, r3 {}
187 189 190 191 193 ldr r3, [sp, #0x2c] {}
189 190 191 193 195 ldr.w r0, [lr, r0, lsl #2] {}
190 191 193 195 196 lsr.w r3, r2, r3 {}
191 193 195 196 197 and r3, r3, #0x1f {}
193 195 196 197 198 mov r2, r12 {}
195 196 197 198 199 lsr.w r3, r0, r3 {}
196 197 198 199 200 lsrs r0, r2 {}
197 198 199 200 201 ands r3, r0 {}
198 199 200 201 202 lsls r0, r3, #0x1f {}
199 200 201 202 203 bmi.w #0x4007180 {bmispred}
202 203 204 205 207 ldr.w r8, [sp, #0x28] {}
203 204 207 208 209 mov r0, r8 {load-use}
204 207 208 209 210 bl #0x40135a4 {bmispred}
209 210 211 212 213 cmp r1, #0 {}
210 211 212 213 214 beq #0x401359a {}
211 212 213 214 216 push.w {r0, r1, lr} {}
212 213 214 216 217 bl #0x4013348 {bmispred}
215 216 217 218 219 subs r2, r1, #1 {}
216 217 218 219 220 it eq {}
217 218 219 220 221 bxeq lr {}
218 219 220 221 222 blo.w #0x401359a {}
219 220 221 222 223 cmp r0, r1 {}
220 221 222 223 224 bls.w #0x4013584 {}
221 222 223 224 225 tst r1, r2 {}
222 223 224 225 226 beq.w #0x401358c {}
223 224 225 226 227 clz r3, r0 {}
224 225 226 227 228 clz r2, r1 {}
225 226 227 228 229 sub.w r3, r2, r3 {}
226 227 228 229 230 rsb.w r3, r3, #0x1f {}
227 228 229 230 231 adr r2, #0x10 {}
228 229 230 231 232 add.w r3, r2, r3, lsl #4 {}
229 230 231 232 233 mov.w r2, #0 {}
230 231 232 233 234 mov pc, r3 {bmispred}
233 234 235 236 237 cmp.w r0, r1, lsl #18 {}
234 235 236 237 238 nop  {}
235 236 237 238 239 adc.w r2, r2, r2 {}
236 237 238 239 240 it hs {}
237 238 239 240 241 subhs.w r0, r0, r1, lsl #18 {}
238 239 240 241 242 cmp.w r0, r1, lsl #17 {}
239 240 241 242 243 nop  {}
240 241 242 243 244 adc.w r2, r2, r2 {}
241 242 243 244 245 it hs {}
242 243 244 245 246 subhs.w r0, r0, r1, lsl #17 {}
243 244 245 246 247 cmp.w r0, r1, lsl #16 {}
244 245 246 247 248 nop  {}
245 246 247 248 249 adc.w r2, r2, r2 {}
246 247 248 249 250 it hs {}
247 248 249 250 251 subhs.w r0, r0, r1, lsl #16 {}
248 249 250 251 252 cmp.w r0, r1, lsl #15 {}
249 250 251 252 253 nop  {}
250 251 252 253 254 adc.w r2, r2, r2 {}
251 252 253 254 255 it hs {}
252 253 254 255 256 subhs.w r0, r0, r1, lsl #15 {}
253 254 255 256 257 cmp.w r0, r1, lsl #14 {}
254 255 256 257 258 nop  {}
255 256 257 258 259 adc.w r2, r2, r2 {}
256 257 258 259 260 it hs {}
257 258 259 260 261 subhs.w r0, r0, r1, lsl #14 {}
258 259 260 261 262 cmp.w r0, r1, lsl #13 {}
259 260 261 262 263 nop  {}
260 261 262 263 264 adc.w r2, r2, r2 {}
261 262 263 264 265 it hs {}
262 263 264 265 266 subhs.w r0, r0, r1, lsl #13 {}
263 264 265 266 267 cmp.w r0, r1, lsl #12 {}
264 265 266 267 268 nop  {}
265 266 267 268 269 adc.w r2, r2, r2 {}
266 267 268 269 270 it hs {}
267 268 269 270 271 subhs.w r0, r0, r1, lsl #12 {}
268 269 270 271 272 cmp.w r0, r1, lsl #11 {}
269 270 271 272 273 nop  {}
270 271 272 273 274 adc.w r2, r2, r2 {}
271 272 273 274 275 it hs {}
272 273 274 275 276 subhs.w r0, r0, r1, lsl #11 {}
273 274 275 276 277 cmp.w r0, r1, lsl #10 {}
274 275 276 277 278 nop  {}
275 276 277 278 279 adc.w r2, r2, r2 {}
276 277 278 279 280 it hs {}
277 278 279 280 281 subhs.w r0, r0, r1, lsl #10 {}
278 279 280 281 282 cmp.w r0, r1, lsl #9 {}
279 280 281 282 283 nop  {}
280 281 282 283 284 adc.w r2, r2, r2 {}
281 282 283 284 285 it hs {}
282 283 284 285 286 subhs.w r0, r0, r1, lsl #9 {}
283 284 285 286 287 cmp.w r0, r1, lsl #8 {}
284 285 286 287 288 nop  {}
285 286 287 288 289 adc.w r2, r2, r2 {}
286 287 288 289 290 it hs {}
287 288 289 290 291 subhs.w r0, r0, r1, lsl #8 {}
288 289 290 291 292 cmp.w r0, r1, lsl #7 {}
289 290 291 292 293 nop  {}
290 291 292 293 294 adc.w r2, r2, r2 {}
291 292 293 294 295 it hs {}
292 293 294 295 296 subhs.w r0, r0, r1, lsl #7 {}
293 294 295 296 297 cmp.w r0, r1, lsl #6 {}
294 295 296 297 298 nop  {}
295 296 297 298 299 adc.w r2, r2, r2 {}
296 297 298 299 300 it hs {}
297 298 299 300 301 subhs.w r0, r0, r1, lsl #6 {}
298 299 300 301 302 cmp.w r0, r1, lsl #5 {}
299 300 301 302 303 nop  {}
300 301 302 303 304 adc.w r2, r2, r2 {}
301 302 303 304 305 it hs {}
302 303 304 305 306 subhs.w r0, r0, r1, lsl #5 {}
303 304 305 306 307 cmp.w r0, r1, lsl #4 {}
304 305 306 307 308 nop  {}
305 306 307 308 309 adc.w r2, r2, r2 {}
306 307 308 309 310 it hs {}
307 308 309 310 311 subhs.w r0, r0, r1, lsl #4 {}
308 309 310 311 312 cmp.w r0, r1, lsl #3 {}
309 310 311 312 313 nop  {}
310 311 312 313 314 adc.w r2, r2, r2 {}
311 312 313 314 315 it hs {}
312 313 314 315 316 subhs.w r0, r0, r1, lsl #3 {}
313 314 315 316 317 cmp.w r0, r1, lsl #2 {}
314 315 316 317 318 nop  {}
315 316 317 318 319 adc.w r2, r2, r2 {}
316 317 318 319 320 it hs {}
317 318 319 320 321 subhs.w r0, r0, r1, lsl #2 {}
318 319 320 321 322 cmp.w r0, r1, lsl #1 {}
319 320 321 322 323 nop  {}
320 321 322 323 324 adc.w r2, r2, r2 {}
321 322 323 324 325 it hs {}
322 323 324 325 326 subhs.w r0, r0, r1, lsl #1 {}
323 324 325 326 327 cmp.w r0, r1 {}
324 325 326 327 328 nop  {}
325 326 327 328 329 adc.w r2, r2, r2 {}
326 327 328 329 330 it hs {}
327 328 329 330 331 subhs.w r0, r0, r1 {}
328 329 330 331 332 mov r0, r2 {}
329 330 331 332 333 bx lr {bmispred}
332 333 334 335 337 pop.w {r1, r2, lr} {}
333 334 335 337 338 mul r3, r2, r0 {}
334 335 337 338 339 sub.w r1, r1, r3 {}
335 337 338 339 340 bx lr {bmispred}
339 340 341 342 344 ldr.w r3, [r4, #0x188] {}
340 341 344 345 347 ldr.w r3, [r3, r1, lsl #2] {load-use}
341 344 347 348 349 cmp r3, #0 {load-use}
344 347 348 349 350 beq.w #0x4006e74 {}
347 348 349 350 352 ldr.w r2, [r4, #0x18c] {}
348 349 350 352 353 add r1, sp, #0x60 {}
349 350 352 353 355 str.w r10, [sp, #0x54] {}
350 352 353 355 356 add.w r3, r2, r3, lsl #2 {}
352 353 355 356 358 str r1, [sp, #0x2c] {}
353 355 356 358 360 str r6, [sp, #0x58] {}
355 356 358 360 361 add r1, sp, #0x64 {}
356 358 360 361 363 str r5, [sp, #0x98] {}
358 360 361 363 364 mov r6, r3 {}
360 361 363 364 366 str.w r9, [sp, #0xa4] {}
361 363 364 366 367 mov r5, r4 {}
363 364 366 367 369 str.w r11, [sp, #0x5c] {}
364 366 367 369 371 str r1, [sp, #0x50] {}
366 367 369 371 373 ldr.w r10, [sp, #0x3c] {}
367 369 371 373 375 ldr.w r9, [sp, #0x38] {}
369 371 373 375 377 ldr.w r11, [sp, #0x34] {}
371 373 375 377 378 b #0x40071d4 {bmispred}
376 377 378 379 381 ldr r3, [r6] {}
377 378 381 382 383 eor.w r2, r8, r3 {load-use}
378 381 382 383 384 lsrs r2, r2, #1 {}
381 382 383 384 385 bne #0x40071ca {bmispred}
384 385 386 387 388 lsls r1, r3, #0x1f {}
385 386 387 388 389 add.w r6, r6, #4 {}
386 387 388 389 390 bmi.w #0x4007382 {}
387 388 389 390 392 ldr r3, [r6] {}
388 389 392 393 394 eor.w r2, r8, r3 {load-use}
389 392 393 394 395 lsrs r2, r2, #1 {}
392 393 394 395 396 bne #0x40071ca {bmispred}
395 396 397 398 399 lsls r1, r3, #0x1f {}
396 397 398 399 400 add.w r6, r6, #4 {}
397 398 399 400 401 bmi.w #0x4007382 {}
398 399 400 401 403 ldr r3, [r6] {}
399 400 403 404 405 eor.w r2, r8, r3 {load-use}
400 403 404 405 406 lsrs r2, r2, #1 {}
403 404 405 406 407 bne #0x40071ca {bmispred}
406 407 408 409 411 ldr.w r4, [r5, #0x18c] {}
407 408 409 411 413 ldr r2, [sp, #0x2c] {}
408 409 411 413 414 subs r4, r6, r4 {}
409 411 413 414 416 ldr r1, [sp, #0x50] {}
411 413 414 416 418 ldr r0, [sp, #0x24] {}
413 414 416 418 419 asrs r4, r4, #2 {}
414 416 418 419 421 str r2, [sp, #0x18] {}
416 418 419 421 423 str r1, [sp, #0x14] {}
418 419 421 423 424 mov r1, r10 {}
419 421 423 424 426 str r0, [sp, #0xc] {}
421 423 424 426 427 add.w lr, r9, r4, lsl #4 {}
423 424 426 427 429 ldr r3, [sp, #0xa0] {}
424 426 427 429 430 mov r0, r11 {}
426 427 429 430 432 ldr r2, [sp, #0x9c] {}
427 429 430 432 434 str r5, [sp, #0x10] {}
429 430 432 434 436 str r4, [sp, #8] {}
430 432 434 436 438 str r7, [sp] {}
432 434 436 438 440 str.w lr, [sp, #4] {}
434 436 438 440 441 bl #0x4006c98 {bmispred}
439 440 441 442 444 push.w {r3, r4, r5, r6, r7, r8, r9, lr} {}
440 441 442 444 446 ldr r4, [sp, #0x24] {}
441 442 444 446 448 ldr.w r9, [sp, #0x30] {}
442 444 446 448 450 ldrb r5, [r4, #0xc] {}
444 446 448 450 452 ldr r6, [r4, #4] {}
446 448 450 452 453 and r5, r5, #0xf {}
448 450 452 453 454 clz r6, r6 {}
450 452 453 454 455 cmp r5, #6 {}
452 453 454 455 456 lsr.w r6, r6, #5 {}
453 454 455 456 457 it eq {}
454 455 456 457 458 moveq r6, #0 {}
455 456 457 458 459 cmp r6, #0 {}
456 457 458 459 460 bne #0x4006d5a {}
457 458 459 460 462 ldrh r6, [r4, #0xe] {}
458 459 460 462 464 ldr r7, [sp, #0x20] {}
459 460 462 464 465 cmp r6, #0 {}
460 462 464 465 466 ite ne {}
462 464 465 466 467 movne r7, #0 {}
464 465 466 467 468 andeq r7, r7, #1 {}
465 466 467 468 469 cmp r7, #0 {}
466 467 468 469 470 bne #0x4006d5a {}
467 468 469 470 471 movw r6, #0x467 {}
468 469 470 471 472 asr.w r5, r6, r5 {}
469 470 471 472 473 lsls r5, r5, #0x1f {}
470 471 472 473 474 bpl #0x4006d5a {}
471 472 473 474 475 mov r6, r3 {}
472 473 474 475 476 mov r3, r1 {}
473 474 475 476 477 cmp r4, r3 {}
474 475 476 477 478 mov r5, r2 {}
475 476 477 478 479 mov r1, r0 {}
476 477 478 479 480 beq #0x4006cf4 {bmispred}
479 480 481 482 484 ldr.w r3, [r9, #0x1a4] {}
480 481 482 484 485 cbz r5, #0x4006d2e {}
481 482 484 485 486 cmp r3, #0 {}
482 484 485 486 487 beq #0x4006d6e {}
484 485 486 487 489 ldr r2, [sp, #0x28] {}
485 486 487 489 491 ldr r1, [r5, #4] {}
486 487 489 491 493 ldrh.w r8, [r3, r2, lsl #1] {}
487 489 491 493 495 ldr.w r2, [r9, #0x170] {}
489 491 493 495 496 ubfx r3, r8, #0, #0xf {}
491 493 495 496 497 lsls r3, r3, #4 {}
493 495 496 497 498 adds r0, r2, r3 {}
495 496 497 498 500 ldr r6, [r0, #4] {}
496 497 500 501 502 cmp r6, r1 {load-use}
497 500 501 502 503 beq #0x4006d60 {bmispred}
502 503 504 505 507 ldr r0, [r2, r3] {}
503 504 505 507 509 ldr r1, [r5] {}
504 505 507 509 510 bl #0x4012090 {bmispred}
508 509 510 511 513 ldrb r2, [r0] {}
509 510 511 513 515 ldrb r3, [r1] {}
510 511 513 515 516 cmp r2, #1 {}
511 513 515 516 517 it hs {}
513 515 516 517 518 cmphs r2, r3 {}
515 516 517 518 519 bne #0x4012080 {}
516 517 518 519 521 strd r4, r5, [sp, #-0x10]! {}
517 518 519 521 522 orr.w r4, r0, r1 {}
518 519 521 522 524 strd r6, r7, [sp, #8] {}
519 521 522 524 525 mvn r12, #0 {}
521 522 524 525 526 lsl.w r2, r4, #0x1d {}
522 524 525 526 527 cbz r2, #0x4012100 {}
524 525 526 527 528 eor.w r4, r0, r1 {}
525 526 527 528 529 tst.w r4, #7 {}
526 527 528 529 530 bne #0x401219a {}
527 528 529 530 531 and r4, r0, #7 {}
528 529 530 531 532 bic r0, r0, #7 {}
529 530 531 532 533 and r5, r4, #3 {}
530 531 532 533 534 bic r1, r1, #7 {}
531 532 533 534 535 lsl.w r5, r5, #3 {}
532 533 534 535 537 ldrd r2, r3, [r0], #0x10 {}
533 534 535 537 538 tst.w r4, #4 {}
534 535 537 538 540 ldrd r6, r7, [r1], #0x10 {}
535 537 538 540 541 lsl.w r4, r12, r5 {}
537 538 540 541 542 orn r2, r2, r4 {}
538 540 541 542 543 orn r6, r6, r4 {}
540 541 542 543 544 beq #0x4012108 {bmispred}
543 544 545 546 547 uadd8 r5, r2, r12 {}
544 545 546 547 548 eor.w r4, r2, r6 {}
545 546 547 548 549 sel r4, r4, r12 {}
546 547 548 549 550 cbnz r4, #0x4012172 {}
547 548 549 550 551 uadd8 r5, r3, r12 {}
548 549 550 551 552 eor.w r5, r3, r7 {}
549 550 551 552 553 sel r5, r5, r12 {}
550 551 552 553 554 cbnz r5, #0x401214a {}
551 552 553 554 556 ldrd r2, r3, [r0, #-0x8] {}
552 553 554 556 558 ldrd r6, r7, [r1, #-0x8] {}
553 554 556 558 559 uadd8 r5, r2, r12 {}
554 556 558 559 560 eor.w r4, r2, r6 {}
556 558 559 560 561 sel r4, r4, r12 {}
558 559 560 561 562 uadd8 r5, r3, r12 {}
559 560 561 562 563 eor.w r5, r3, r7 {}
560 561 562 563 564 sel r5, r5, r12 {}
561 562 563 564 565 orrs r5, r4 {}
562 563 564 565 566 beq #0x4012100 {}
563 564 565 566 567 cbnz r4, #0x4012172 {}
564 565 566 567 568 rev r5, r5 {}
565 566 567 568 569 clz r4, r5 {}
566 567 568 569 570 bic r4, r4, #7 {}
567 568 569 570 571 lsr.w r1, r7, r4 {}
568 569 570 571 573 ldrd r6, r7, [sp, #8] {}
569 570 571 573 574 lsr.w r3, r3, r4 {}
570 571 573 574 575 and r0, r3, #0xff {}
571 573 574 575 576 and r1, r1, #0xff {}
573 574 575 576 578 ldrd r4, r5, [sp], #0x10 {}
574 575 576 578 579 sub.w r0, r0, r1 {}
575 576 578 579 580 bx lr {bmispred}
579 580 581 582 583 cmp r0, #0 {}
580 581 582 583 584 bne #0x4006d18 {}
581 582 583 584 585 b #0x4006d28 {bmispred}
584 585 586 587 588 mov r0, r4 {}
585 586 587 588 590 pop.w {r3, r4, r5, r6, r7, r8, r9, pc} {bmispred}
588 589 590 591 592 cmp r0, #0 {}
589 590 591 592 593 bne.w #0x40074e6 {bmispred}
592 593 594 595 596 mov r8, r4 {}
593 594 595 596 597 mov r3, r0 {}
594 595 596 597 598 mov r4, r5 {}
595 596 597 598 600 ldr.w r10, [sp, #0x54] {}
596 597 598 600 602 ldr r6, [sp, #0x58] {}
597 598 600 602 604 ldr r5, [sp, #0x98] {}
598 600 602 604 606 ldr.w r9, [sp, #0xa4] {}
600 602 604 606 608 ldr.w r11, [sp, #0x5c] {}
602 604 606 608 609 b #0x4006f60 {bmispred}
607 608 609 610 612 ldr r2, [sp, #0xac] {}
608 609 612 613 614 cmp r2, #0 {load-use}
609 612 613 614 615 beq.w #0x40070da {}
612 613 614 615 617 ldrb r2, [r3, #0xc] {}
613 614 617 618 619 lsrs r2, r2, #4 {load-use}
614 617 618 619 620 cmp r2, #2 {}
617 618 619 620 621 beq #0x4006f82 {bmispred}
620 621 622 623 625 ldr r2, [sp, #0x40] {}
621 622 625 626 628 ldr r2, [r2, #0x34] {load-use}
622 625 628 629 630 cmp r2, #0 {load-use}
625 628 629 630 631 bne.w #0x400735c {}
628 629 630 631 633 ldr r2, [sp, #0x90] {}
629 630 631 633 634 movs r0, #1 {}
630 631 633 634 636 str r3, [r2] {}
631 633 634 636 638 str r4, [r2, #4] {}
633 634 636 638 639 add sp, #0x6c {}
634 636 638 639 641 pop.w {r4, r5, r6, r7, r8, r9, r10, r11, pc} {bmispred}
639 640 641 642 643 subs r2, r0, #0 {}
640 641 642 643 644 ble #0x400763a {}
641 642 643 644 646 ldr r3, [r7, #0x28] {}
642 643 644 646 648 str.w r4, [r7, #0x8c] {}
643 644 646 648 649 mov r4, r8 {}
644 646 648 649 651 ldr.w r8, [r7, #0x8c] {}
646 648 649 651 652 cmp r3, #0 {}
648 649 651 652 653 beq.w #0x40078f8 {}
649 651 652 653 655 ldr.w r3, [r10] {}
651 652 655 656 657 cbz r3, #0x40076b0 {load-use}
652 655 656 657 659 ldrb r2, [r3, #0xd] {}
655 656 659 660 661 and r2, r2, #3 {load-use}
656 659 660 661 662 cmp r2, #3 {}
659 660 661 662 663 beq #0x40076ec {}
660 661 662 663 665 ldr r4, [r7, #0x2c] {}
661 662 663 665 666 movs r5, #0 {}
662 663 665 666 668 ldrb.w r3, [r4, #0x194] {}
663 665 668 669 670 and r3, r3, #3 {load-use}
665 668 669 670 671 cmp r3, #2 {}
668 669 670 671 672 beq #0x40077a8 {}
669 670 671 672 673 mov r0, r4 {}
670 671 672 673 675 ldr.w r3, [r0, #0x1fc] {}
671 672 675 676 677 cmp r3, #0 {load-use}
672 675 676 677 678 beq.w #0x4007a54 {}
675 676 677 678 680 ldr.w r3, [pc, #0xa54] {}
676 677 678 680 681 movw r2, #0x804 {}
677 678 680 681 682 add r3, pc {}
678 680 681 682 684 ldr r3, [r3] {}
680 681 684 685 686 tst r3, r2 {load-use}
681 684 685 686 687 bne.w #0x400791e {}
684 685 686 687 689 ldr r1, [r7, #0x28] {}
685 686 687 689 691 str.w r1, [r10] {}
686 687 689 691 692 adds r7, #0x5c {}
687 689 691 692 693 mov sp, r7 {}
689 691 692 693 695 pop.w {r4, r5, r6, r7, r8, r9, r10, r11, pc} {bmispred}
693 694 695 696 698 ldr r3, [r7, #0x54] {}
694 695 696 698 700 str.w r3, [r6, #0x224] {}
695 696 698 700 701 mov r2, r0 {}
696 698 700 701 703 str.w r0, [r6, #0x220] {}
698 700 701 703 704 cmp r2, #0 {}
700 701 703 704 705 beq.w #0x4008e00 {}
701 703 704 705 707 ldr r0, [r2] {}
703 704 705 707 709 ldr r1, [r3, #4] {}
704 705 709 710 711 adds r1, r0, r1 {load-use}
705 709 710 711 713 str r1, [r7, #0x3c] {}
709 710 711 713 715 ldrb r1, [r3, #0xc] {}
710 711 715 716 717 and r1, r1, #0xf {load-use}
711 715 716 717 718 cmp r1, #0xa {}
715 716 717 718 719 beq.w #0x4009094 {}
716 717 718 719 720 cmp r5, #0x12 {}
717 718 719 720 721 beq.w #0x400907a {}
718 719 720 721 722 bhi #0x4008d1a {bmispred}
721 722 723 724 725 cmp r5, #0x16 {}
722 723 724 725 726 bhi.w #0x4008e42 {}
723 724 725 726 727 cmp r5, #0x15 {}
724 725 726 727 728 bhs.w #0x4009024 {bmispred}
727 728 729 730 732 ldr r3, [r7, #0x3c] {}
728 729 730 732 733 add.w r10, r10, #8 {}
729 730 732 733 735 str.w r3, [r9, r8] {}
730 732 733 735 737 ldr r3, [r7, #0x2c] {}
732 733 737 738 739 cmp r3, r10 {load-use}
733 737 738 739 740 bhi.w #0x4008c0a {bmispred}
739 740 741 742 744 ldr.w r5, [r10, #4] {}
740 741 742 744 746 ldr.w r8, [r10] {}
741 742 744 746 748 ldr.w r1, [r6, #0x170] {}
742 744 746 748 749 add.w r2, r9, r8 {}
744 746 748 749 751 str r2, [r7, #0x48] {}
746 748 749 751 753 ldr r2, [r7, #0x34] {}
748 749 751 753 754 lsrs r3, r5, #8 {}
749 751 753 754 755 uxtb r5, r5 {}
751 753 754 755 756 lsl.w r11, r3, #4 {}
753 754 755 756 757 cmp r5, #0x17 {}
754 755 756 757 759 ldrh.w r3, [r2, r3, lsl #1] {}
755 756 757 759 761 ldr r2, [r7, #0x4c] {}
756 757 761 762 763 add.w r4, r2, r11 {load-use}
757 761 762 763 765 str r4, [r7, #0x54] {}
761 762 763 765 766 beq.w #0x4008e66 {}
762 763 765 766 767 cmp r5, #0 {}
763 765 766 767 768 beq #0x4008d06 {}
765 766 767 768 770 ldrb r2, [r4, #0xc] {}
766 767 770 771 772 lsrs r2, r2, #4 {load-use}
767 770 771 772 773 beq #0x4008d14 {}
770 771 772 773 775 ldr.w r2, [r6, #0x218] {}
771 772 775 776 777 cmp r4, r2 {load-use}
772 775 776 777 778 beq.w #0x400919c {}
775 776 777 778 779 cmp r5, #0x11 {}
776 777 778 779 780 it ne {}
777 778 779 780 781 cmpne r5, #0x16 {}
778 779 780 781 782 it eq {}
779 780 781 782 783 moveq r2, #1 {}
780 781 782 783 784 beq #0x4008c68 {}
781 782 783 784 785 sub.w r2, r5, #0x12 {}
782 783 784 785 786 cmp r5, #0xd {}
783 784 785 786 787 it ne {}
784 785 786 787 788 cmpne r2, #1 {}
785 786 787 788 789 ite ls {}
786 787 788 789 790 movls r2, #1 {}
787 788 789 790 791 movhi r2, #0 {}
788 789 790 791 792 cmp r5, #0x14 {}
789 790 791 792 793 beq.w #0x4008e34 {}
790 791 792 793 794 cmp r5, #0x15 {}
791 792 793 794 795 ite ne {}
792 793 794 795 796 movne r0, #0 {}
793 794 795 796 797 moveq r0, #4 {}
794 795 796 797 798 ubfx r3, r3, #0, #0xf {}
795 796 797 798 799 orrs r2, r0 {}
796 797 798 799 801 str.w r4, [r6, #0x218] {}
797 798 799 801 802 adds.w r3, r1, r3, lsl #4 {}
798 799 801 802 804 str.w r2, [r6, #0x21c] {}
799 801 802 804 805 beq #0x4008c92 {}
801 802 804 805 807 ldr r1, [r3, #4] {}
802 804 807 808 809 cmp r1, #0 {load-use}
804 807 808 809 810 it eq {}
807 808 809 810 811 moveq r3, #0 {}
808 809 810 811 813 ldr r1, [r7, #0x4c] {}
809 810 811 813 814 mov.w lr, #1 {}
810 811 813 814 816 ldr.w r0, [r1, r11] {}
811 813 814 816 817 movs r1, #0 {}
813 814 816 817 819 str r2, [sp, #4] {}
814 816 817 819 821 ldr r2, [r7, #0x30] {}
816 817 819 821 823 str r3, [sp] {}
817 819 821 823 824 add r0, r2 {}
819 821 823 824 826 str r1, [sp, #0xc] {}
821 823 824 826 828 ldr r3, [r7, #0x44] {}
823 824 826 828 829 add.w r2, r7, #0x54 {}
824 826 828 829 831 str.w lr, [sp, #8] {}
826 828 829 831 832 mov r1, r6 {}
828 829 831 832 833 bl #0x40075a0 {bmispred}
832 833 834 835 837 push.w {r4, r5, r6, r7, r8, r9, r10, r11, lr} {}
833 834 835 837 838 mov r6, r1 {}
834 835 837 838 839 sub sp, #0x7c {}
835 837 838 839 841 ldrb r1, [r0] {}
837 838 839 841 842 add r7, sp, #0x20 {}
838 839 841 842 843 mov r9, r0 {}
839 841 842 843 844 mov r10, r2 {}
841 842 843 844 846 str r3, [r7, #0x10] {}
842 843 844 846 848 ldr.w r11, [r7, #0x80] {}
843 844 846 848 850 ldr.w r8, [r7, #0x8c] {}
844 846 848 850 851 cmp r1, #0 {}
846 848 850 851 852 beq.w #0x4007918 {}
848 850 851 852 853 mov r3, r0 {}
850 851 852 853 854 movw r4, #0x1505 {}
851 852 853 854 855 add.w r4, r4, r4, lsl #5 {}
852 853 854 855 856 add r4, r1 {}
853 854 855 856 858 ldrb r1, [r3, #1]! {}
854 855 858 859 860 cmp r1, #0 {load-use}
855 858 859 860 861 bne #0x40075c6 {bmispred}
860 861 862 863 864 add.w r4, r4, r4, lsl #5 {}
861 862 863 864 865 add r4, r1 {}
862 863 864 865 867 ldrb r1, [r3, #1]! {}
863 864 867 868 869 cmp r1, #0 {load-use}
864 867 868 869 870 bne #0x40075c6 {bmispred}
869 870 871 872 873 add.w r4, r4, r4, lsl #5 {}
870 871 872 873 874 add r4, r1 {}
871 872 873 874 876 ldrb r1, [r3, #1]! {}
872 873 876 877 878 cmp r1, #0 {load-use}
873 876 877 878 879 bne #0x40075c6 {}
876 877 878 879 880 add.w r4, r4, r4, lsl #5 {}
877 878 879 880 881 add r4, r1 {}
878 879 880 881 883 ldrb r1, [r3, #1]! {}
879 880 883 884 885 cmp r1, #0 {load-use}
880 883 884 885 886 bne #0x40075c6 {}
883 884 885 886 887 add.w r4, r4, r4, lsl #5 {}
884 885 886 887 888 add r4, r1 {}
885 886 887 888 890 ldrb r1, [r3, #1]! {}
886 887 890 891 892 cmp r1, #0 {load-use}
887 890 891 892 893 bne #0x40075c6 {}
890 891 892 893 894 add.w r4, r4, r4, lsl #5 {}
891 892 893 894 895 add r4, r1 {}
892 893 894 895 897 ldrb r1, [r3, #1]! {}
893 894 897 898 899 cmp r1, #0 {load-use}
894 897 898 899 900 bne #0x40075c6 {}
897 898 899 900 901 add.w r4, r4, r4, lsl #5 {}
898 899 900 901 902 add r4, r1 {}
899 900 901 902 904 ldrb r1, [r3, #1]! {}
900 901 904 905 906 cmp r1, #0 {load-use}
901 904 905 906 907 bne #0x40075c6 {}
904 905 906 907 908 add.w r4, r4, r4, lsl #5 {}
905 906 907 908 909 add r4, r1 {}
906 907 908 909 911 ldrb r1, [r3, #1]! {}
907 908 911 912 913 cmp r1, #0 {load-use}
908 911 912 913 914 bne #0x40075c6 {}
911 912 913 914 915 add.w r4, r4, r4, lsl #5 {}
912 913 914 915 916 add r4, r1 {}
913 914 915 916 918 ldrb r1, [r3, #1]! {}
914 915 918 919 920 cmp r1, #0 {load-use}
915 918 919 920 921 bne #0x40075c6 {}
918 919 920 921 922 add.w r4, r4, r4, lsl #5 {}
919 920 921 922 923 add r4, r1 {}
920 921 922 923 925 ldrb r1, [r3, #1]! {}
921 922 925 926 927 cmp r1, #0 {load-use}
922 925 926 927 928 bne #0x40075c6 {}
925 926 927 928 929 add.w r4, r4, r4, lsl #5 {}
926 927 928 929 930 add r4, r1 {}
927 928 929 930 932 ldrb r1, [r3, #1]! {}
928 929 932 933 934 cmp r1, #0 {load-use}
929 932 933 934 935 bne #0x40075c6 {}
932 933 934 935 936 add.w r4, r4, r4, lsl #5 {}
933 934 935 936 937 add r4, r1 {}
934 935 936 937 939 ldrb r1, [r3, #1]! {}
935 936 939 940 941 cmp r1, #0 {load-use}
936 939 940 941 942 bne #0x40075c6 {}
939 940 941 942 943 add.w r4, r4, r4, lsl #5 {}
940 941 942 943 944 add r4, r1 {}
941 942 943 944 946 ldrb r1, [r3, #1]! {}
942 943 946 947 948 cmp r1, #0 {load-use}
943 946 947 948 949 bne #0x40075c6 {}
946 947 948 949 950 add.w r4, r4, r4, lsl #5 {}
947 948 949 950 951 add r4, r1 {}
948 949 950 951 953 ldrb r1, [r3, #1]! {}
949 950 953 954 955 cmp r1, #0 {load-use}
950 953 954 955 956 bne #0x40075c6 {}
953 954 955 956 957 add.w r4, r4, r4, lsl #5 {}
954 955 956 957 958 add r4, r1 {}
955 956 957 958 960 ldrb r1, [r3, #1]! {}
956 957 960 961 962 cmp r1, #0 {load-use}
957 960 961 962 963 bne #0x40075c6 {}
960 961 962 963 964 add.w r4, r4, r4, lsl #5 {}
961 962 963 964 965 add r4, r1 {}
962 963 964 965 967 ldrb r1, [r3, #1]! {}
963 964 967 968 969 cmp r1, #0 {load-use}
964 967 968 969 970 bne #0x40075c6 {}
967 968 969 970 971 add.w r4, r4, r4, lsl #5 {}
968 969 970 971 972 add r4, r1 {}
969 970 971 972 974 ldrb r1, [r3, #1]! {}
970 971 974 975 976 cmp r1, #0 {load-use}
971 974 975 976 977 bne #0x40075c6 {}
974 975 976 977 978 add.w r4, r4, r4, lsl #5 {}
975 976 977 978 979 add r4, r1 {}
976 977 978 979 981 ldrb r1, [r3, #1]! {}
977 978 981 982 983 cmp r1, #0 {load-use}
978 981 982 983 984 bne #0x40075c6 {}
981 982 983 984 985 add.w r4, r4, r4, lsl #5 {}
982 983 984 985 986 add r4, r1 {}
983 984 985 986 988 ldrb r1, [r3, #1]! {}
984 985 988 989 990 cmp r1, #0 {load-use}
985 988 989 990 991 bne #0x40075c6 {}
988 989 990 991 992 add.w r4, r4, r4, lsl #5 {}
989 990 991 992 993 add r4, r1 {}
990 991 992 993 995 ldrb r1, [r3, #1]! {}
991 992 995 996 997 cmp r1, #0 {load-use}
992 995 996 997 998 bne #0x40075c6 {}
995 996 997 998 999 add.w r4, r4, r4, lsl #5 {}
996 997 998 999 1000 add r4, r1 {}
997 998 999 1000 1002 ldrb r1, [r3, #1]! {}
998 999 1002 1003 1004 cmp r1, #0 {load-use}
999 1002 1003 1004 1005 bne #0x40075c6 {}
1002 1003 1004 1005 1006 add.w r4, r4, r4, lsl #5 {}
1003 1004 1005 1006 1007 add r4, r1 {}
1004 1005 1006 1007 1009 ldrb r1, [r3, #1]! {}
1005 1006 1009 1010 1011 cmp r1, #0 {load-use}
1006 1009 1010 1011 1012 bne #0x40075c6 {}
1009 1010 1011 1012 1013 add.w r4, r4, r4, lsl #5 {}
1010 1011 1012 1013 1014 add r4, r1 {}
1011 1012 1013 1014 1016 ldrb r1, [r3, #1]! {}
1012 1013 1016 1017 1018 cmp r1, #0 {load-use}
1013 1016 1017 1018 1019 bne #0x40075c6 {}
1016 1017 1018 1019 1020 add.w r4, r4, r4, lsl #5 {}
1017 1018 1019 1020 1021 add r4, r1 {}
1018 1019 1020 1021 1023 ldrb r1, [r3, #1]! {}
1019 1020 1023 1024 1025 cmp r1, #0 {load-use}
1020 1023 1024 1025 1026 bne #0x40075c6 {}
1023 1024 1025 1026 1027 add.w r4, r4, r4, lsl #5 {}
1024 1025 1026 1027 1028 add r4, r1 {}
1025 1026 1027 1028 1030 ldrb r1, [r3, #1]! {}
1026 1027 1030 1031 1032 cmp r1, #0 {load-use}
1027 1030 1031 1032 1033 bne #0x40075c6 {}
1030 1031 1032 1033 1034 add.w r4, r4, r4, lsl #5 {}
1031 1032 1033 1034 1035 add r4, r1 {}
1032 1033 1034 1035 1037 ldrb r1, [r3, #1]! {}
1033 1034 1037 1038 1039 cmp r1, #0 {load-use}
1034 1037 1038 1039 1040 bne #0x40075c6 {}
1037 1038 1039 1040 1041 add.w r4, r4, r4, lsl #5 {}
1038 1039 1040 1041 1042 add r4, r1 {}
1039 1040 1041 1042 1044 ldrb r1, [r3, #1]! {}
1040 1041 1044 1045 1046 cmp r1, #0 {load-use}
1041 1044 1045 1046 1047 bne #0x40075c6 {}
1044 1045 1046 1047 1048 add.w r4, r4, r4, lsl #5 {}
1045 1046 1047 1048 1049 add r4, r1 {}
1046 1047 1048 1049 1051 ldrb r1, [r3, #1]! {}
1047 1048 1051 1052 1053 cmp r1, #0 {load-use}
1048 1051 1052 1053 1054 bne #0x40075c6 {}
1051 1052 1053 1054 1055 add.w r4, r4, r4, lsl #5 {}
1052 1053 1054 1055 1056 add r4, r1 {}
1053 1054 1055 1056 1058 ldrb r1, [r3, #1]! {}
1054 1055 1058 1059 1060 cmp r1, #0 {load-use}
1055 1058 1059 1060 1061 bne #0x40075c6 {}
1058 1059 1060 1061 1062 add.w r4, r4, r4, lsl #5 {}
1059 1060 1061 1062 1063 add r4, r1 {}
1060 1061 1062 1063 1065 ldrb r1, [r3, #1]! {}
1061 1062 1065 1066 1067 cmp r1, #0 {load-use}
1062 1065 1066 1067 1068 bne #0x40075c6 {}
1065 1066 1067 1068 1069 add.w r4, r4, r4, lsl #5 {}
1066 1067 1068 1069 1070 add r4, r1 {}
1067 1068 1069 1070 1072 ldrb r1, [r3, #1]! {}
1068 1069 1072 1073 1074 cmp r1, #0 {load-use}
1069 1072 1073 1074 1075 bne #0x40075c6 {}
1072 1073 1074 1075 1076 add.w r4, r4, r4, lsl #5 {}
1073 1074 1075 1076 1077 add r4, r1 {}
1074 1075 1076 1077 1079 ldrb r1, [r3, #1]! {}
1075 1076 1079 1080 1081 cmp r1, #0 {load-use}
1076 1079 1080 1081 1082 bne #0x40075c6 {}
1079 1080 1081 1082 1083 add.w r4, r4, r4, lsl #5 {}
1080 1081 1082 1083 1084 add r4, r1 {}
1081 1082 1083 1084 1086 ldrb r1, [r3, #1]! {}
1082 1083 1086 1087 1088 cmp r1, #0 {load-use}
1083 1086 1087 1088 1089 bne #0x40075c6 {}
1086 1087 1088 1089 1090 add.w r4, r4, r4, lsl #5 {}
1087 1088 1089 1090 1091 add r4, r1 {}
1088 1089 1090 1091 1093 ldrb r1, [r3, #1]! {}
1089 1090 1093 1094 1095 cmp r1, #0 {load-use}
1090 1093 1094 1095 1096 bne #0x40075c6 {}
1093 1094 1095 1096 1097 add.w r4, r4, r4, lsl #5 {}
1094 1095 1096 1097 1098 add r4, r1 {}
1095 1096 1097 1098 1100 ldrb r1, [r3, #1]! {}
1096 1097 1100 1101 1102 cmp r1, #0 {load-use}
1097 1100 1101 1102 1103 bne #0x40075c6 {}
1100 1101 1102 1103 1104 add.w r4, r4, r4, lsl #5 {}
1101 1102 1103 1104 1105 add r4, r1 {}
1102 1103 1104 1105 1107 ldrb r1, [r3, #1]! {}
1103 1104 1107 1108 1109 cmp r1, #0 {load-use}
1104 1107 1108 1109 1110 bne #0x40075c6 {}
1107 1108 1109 1110 1111 add.w r4, r4, r4, lsl #5 {}
1108 1109 1110 1111 1112 add r4, r1 {}
1109 1110 1111 1112 1114 ldrb r1, [r3, #1]! {}
1110 1111 1114 1115 1116 cmp r1, #0 {load-use}
1111 1114 1115 1116 1117 bne #0x40075c6 {}
1114 1115 1116 1117 1118 add.w r4, r4, r4, lsl #5 {}
1115 1116 1117 1118 1119 add r4, r1 {}
1116 1117 1118 1119 1121 ldrb r1, [r3, #1]! {}
1117 1118 1121 1122 1123 cmp r1, #0 {load-use}
1118 1121 1122 1123 1124 bne #0x40075c6 {}
1121 1122 1123 1124 1125 add.w r4, r4, r4, lsl #5 {}
1122 1123 1124 1125 1126 add r4, r1 {}
1123 1124 1125 1126 1128 ldrb r1, [r3, #1]! {}
1124 1125 1128 1129 1130 cmp r1, #0 {load-use}
1125 1128 1129 1130 1131 bne #0x40075c6 {}
1128 1129 1130 1131 1132 add.w r4, r4, r4, lsl #5 {}
1129 1130 1131 1132 1133 add r4, r1 {}
1130 1131 1132 1133 1135 ldrb r1, [r3, #1]! {}
1131 1132 1135 1136 1137 cmp r1, #0 {load-use}
1132 1135 1136 1137 1138 bne #0x40075c6 {}
1135 1136 1137 1138 1139 add.w r4, r4, r4, lsl #5 {}
1136 1137 1138 1139 1140 add r4, r1 {}
1137 1138 1139 1140 1142 ldrb r1, [r3, #1]! {}
1138 1139 1142 1143 1144 cmp r1, #0 {load-use}
1139 1142 1143 1144 1145 bne #0x40075c6 {}
1142 1143 1144 1145 1146 add.w r4, r4, r4, lsl #5 {}
1143 1144 1145 1146 1147 add r4, r1 {}
1144 1145 1146 1147 1149 ldrb r1, [r3, #1]! {}
1145 1146 1149 1150 1151 cmp r1, #0 {load-use}
1146 1149 1150 1151 1152 bne #0x40075c6 {bmispred}
1151 1152 1153 1154 1156 ldr.w r2, [pc, #0xb48] {}
1152 1153 1154 1156 1157 mov.w r3, #-1 {}
1153 1154 1156 1157 1159 str r3, [r7, #0x20] {}
1154 1156 1157 1159 1160 movs r1, #0 {}
1156 1157 1159 1160 1161 add r2, pc {}
1157 1159 1160 1161 1163 str r1, [r7, #0x28] {}
1159 1160 1161 1163 1165 str r1, [r7, #0x2c] {}
1160 1161 1163 1165 1167 ldr.w r3, [r2, #0x508] {}
1161 1163 1165 1167 1168 adds r3, #1 {}
1163 1165 1167 1168 1170 str.w r3, [r2, #0x508] {}
1165 1167 1168 1170 1171 cmp.w r11, #0 {}
1167 1168 1170 1171 1172 beq #0x4007602 {}
1168 1170 1171 1172 1174 ldr.w r3, [r7, #0x88] {}
1170 1171 1174 1175 1176 bics r3, r3, #5 {load-use}
1171 1174 1175 1176 1177 bne.w #0x4007ee2 {}
1174 1175 1176 1177 1179 ldr r3, [r7, #0x10] {}
1175 1176 1179 1180 1182 ldr.w lr, [r3] {load-use}
1176 1179 1180 1182 1183 cmp.w r8, #0 {}
1179 1180 1182 1183 1184 bne.w #0x40078dc {}
1180 1182 1183 1184 1185 cmp.w lr, #0 {}
1182 1183 1184 1185 1186 beq.w #0x40078f8 {}
1183 1184 1185 1186 1188 str.w r8, [r7, #0xc] {}
1184 1185 1186 1188 1190 ldr r5, [r7, #0x10] {}
1185 1186 1188 1190 1191 add.w r3, r7, #0x20 {}
1186 1188 1190 1191 1193 str.w r8, [r7, #0x8c] {}
1188 1190 1191 1193 1194 mov r8, r4 {}
1190 1191 1193 1194 1196 str r3, [r7, #0x18] {}
1191 1193 1194 1196 1197 add.w r3, r7, #0x28 {}
1193 1194 1196 1197 1199 ldr r0, [r7, #0xc] {}
1194 1196 1197 1199 1201 str r3, [r7, #0x14] {}
1196 1197 1199 1201 1203 str r5, [r7, #0x1c] {}
1197 1199 1201 1203 1205 ldr.w r4, [r7, #0x8c] {}
1199 1201 1203 1205 1206 b #0x400765e {bmispred}
1204 1205 1206 1207 1209 ldr.w r5, [r7, #0x84] {}
1205 1206 1207 1209 1210 mov r1, r8 {}
1206 1207 1209 1210 1212 ldr.w r3, [r10] {}
1207 1209 1210 1212 1214 ldr r2, [r7, #0x18] {}
1209 1210 1212 1214 1216 str r5, [sp, #0x18] {}
1210 1212 1214 1216 1218 ldr.w r5, [r7, #0x88] {}
1212 1214 1216 1218 1220 str r0, [sp, #8] {}
1214 1216 1218 1220 1221 mov r0, r9 {}
1216 1218 1220 1221 1223 str r6, [sp, #0x1c] {}
1218 1220 1221 1223 1225 str r5, [sp, #0x10] {}
1220 1221 1223 1225 1227 ldr r5, [r7, #0x14] {}
1221 1223 1225 1227 1229 str r4, [sp, #0x14] {}
1223 1225 1227 1229 1231 str.w r11, [sp, #0xc] {}
1225 1227 1229 1231 1233 str.w lr, [sp, #4] {}
1227 1229 1231 1233 1235 str r5, [sp] {}
1229 1231 1233 1235 1236 bl #0x4006da8 {bmispred}
1234 1235 1236 1237 1239 push.w {r4, r5, r6, r7, r8, r9, r10, r11, lr} {}
1235 1236 1237 1239 1240 sub sp, #0x6c {}
1236 1237 1239 1240 1242 ldr r4, [sp, #0x94] {}
1237 1239 1240 1242 1244 str r3, [sp, #0x3c] {}
1239 1240 1242 1244 1246 str r2, [sp, #0x44] {}
1240 1242 1244 1246 1248 ldr r3, [r4, #4] {}
1242 1244 1246 1248 1250 ldr.w r2, [pc, #0x79c] {}
1244 1246 1248 1250 1252 str r0, [sp, #0x34] {}
1246 1248 1250 1252 1253 add r2, pc {}
1248 1250 1252 1253 1254 mov r10, r3 {}
1250 1252 1253 1254 1256 str r2, [sp, #0x48] {}
1252 1253 1254 1256 1258 ldr r5, [sp, #0x98] {}
1253 1254 1256 1258 1260 ldr.w r9, [sp, #0xa4] {}
1254 1256 1258 1260 1262 ldr.w r8, [sp, #0xa8] {}
1256 1258 1260 1262 1264 ldr r6, [r4] {}
1258 1260 1262 1264 1265 lsrs r3, r1, #5 {}
1260 1262 1264 1265 1267 ldr.w r2, [pc, #0x784] {}
1262 1264 1265 1267 1268 mov r7, r8 {}
1264 1265 1267 1268 1270 str r3, [sp, #0x30] {}
1265 1267 1268 1270 1271 add.w r6, r6, r5, lsl #2 {}
1267 1268 1270 1271 1273 ldr.w r3, [pc, #0x77c] {}
1268 1270 1271 1273 1274 mov r11, r10 {}
1270 1271 1273 1274 1275 add r2, pc {}
1271 1273 1274 1275 1277 str r1, [sp, #0x28] {}
1273 1274 1275 1277 1278 add r3, pc {}
1274 1275 1277 1278 1280 str r2, [sp, #0x40] {}
1275 1277 1278 1280 1282 str r3, [sp, #0x20] {}
1277 1278 1280 1282 1283 movw r3, #0xaaab {}
1278 1280 1282 1283 1284 movt r3, #0xaaaa {}
1280 1282 1283 1284 1286 str r3, [sp, #0x4c] {}
1282 1283 1284 1286 1288 ldr r3, [r6], #4 {}
1283 1284 1288 1289 1291 ldr r4, [r3, #0x14] {load-use}
1284 1288 1291 1292 1293 cmp r4, r9 {load-use}
1288 1291 1292 1293 1294 beq #0x4006e98 {}
1291 1292 1293 1294 1295 ands r10, r7, #2 {}
1292 1293 1294 1295 1296 beq #0x4006e0e {bmispred}
1295 1296 1297 1298 1300 ldrb.w r3, [r4, #0x195] {}
1296 1297 1300 1301 1302 lsls r2, r3, #0x1a {load-use}
1297 1300 1301 1302 1303 bmi #0x4006e98 {}
1300 1301 1302 1303 1305 ldr r3, [sp, #0x20] {}
1301 1302 1305 1306 1308 ldr r3, [r3] {load-use}
1302 1305 1308 1309 1310 lsls r3, r3, #0x1c {load-use}
1305 1308 1309 1310 1311 bmi #0x4006ea6 {}
1308 1309 1310 1311 1313 ldr.w r1, [r4, #0x178] {}
1309 1310 1313 1314 1315 cmp r1, #0 {load-use}
1310 1313 1314 1315 1316 beq #0x4006e98 {}
1313 1314 1315 1316 1318 ldr r2, [r4, #0x38] {}
1314 1315 1316 1318 1319 movs r0, #0 {}
1315 1316 1318 1319 1321 ldr r3, [r4, #0x34] {}
1316 1318 1319 1321 1323 ldr.w lr, [r4, #0x184] {}
1318 1319 1321 1323 1325 ldr r2, [r2, #4] {}
1319 1321 1323 1325 1327 ldr r3, [r3, #4] {}
1321 1323 1325 1327 1329 str r0, [sp, #0x60] {}
1323 1325 1327 1329 1331 str r2, [sp, #0x38] {}
1325 1327 1329 1331 1333 str r3, [sp, #0x24] {}
1327 1329 1331 1333 1335 str r0, [sp, #0x64] {}
1329 1331 1333 1335 1336 cmp.w lr, #0 {}
1331 1333 1335 1336 1337 beq #0x4006ed2 {}
1333 1335 1336 1337 1339 ldr.w r3, [r4, #0x180] {}
1335 1336 1337 1339 1341 ldr.w r0, [r4, #0x17c] {}
1336 1337 1339 1341 1343 ldr r2, [sp, #0x28] {}
1337 1339 1341 1343 1345 str r3, [sp, #0x2c] {}
1339 1341 1343 1345 1347 ldr r3, [sp, #0x30] {}
1341 1343 1345 1347 1348 and r12, r2, #0x1f {}
1343 1345 1347 1348 1349 ands r0, r3 {}
1345 1347 1348 1349 1351 ldr r3, [sp, #0x2c] {}
1347 1348 1349 1351 1353 ldr.w r0, [lr, r0, lsl #2] {}
1348 1349 1351 1353 1354 lsr.w r3, r2, r3 {}
1349 1351 1353 1354 1355 and r3, r3, #0x1f {}
1351 1353 1354 1355 1356 mov r2, r12 {}
1353 1354 1355 1356 1357 lsr.w r3, r0, r3 {}
1354 1355 1356 1357 1358 lsrs r0, r2 {}
1355 1356 1357 1358 1359 ands r3, r0 {}
1356 1357 1358 1359 1360 lsls r0, r3, #0x1f {}
1357 1358 1359 1360 1361 bmi.w #0x4007180 {}
1358 1359 1360 1361 1362 mov.w r8, #1 {}
1359 1360 1361 1362 1364 ldr r3, [sp, #0x9c] {}
1360 1361 1364 1365 1366 cmp r3, #0 {load-use}
1361 1364 1365 1366 1367 ite eq {}
1364 1365 1366 1367 1368 moveq r3, #0 {}
1365 1366 1367 1368 1369 andne r3, r8, #1 {}
1366 1367 1368 1369 1370 cbz r3, #0x4006e98 {}
1367 1368 1369 1370 1372 ldr r3, [sp, #0x9c] {}
1368 1369 1372 1373 1375 ldr r0, [r3, #0xc] {load-use}
1369 1372 1375 1376 1377 cbz r0, #0x4006e98 {load-use}
1372 1375 1376 1377 1378 adds r5, #1 {}
1375 1376 1377 1378 1379 cmp r11, r5 {}
1376 1377 1378 1379 1380 bhi #0x4006df6 {bmispred}
1379 1380 1381 1382 1384 ldr r3, [r6], #4 {}
1380 1381 1384 1385 1387 ldr r4, [r3, #0x14] {load-use}
1381 1384 1387 1388 1389 cmp r4, r9 {load-use}
1384 1387 1388 1389 1390 beq #0x4006e98 {}
1387 1388 1389 1390 1391 ands r10, r7, #2 {}
1388 1389 1390 1391 1392 beq #0x4006e0e {bmispred}
1391 1392 1393 1394 1396 ldrb.w r3, [r4, #0x195] {}
1392 1393 1396 1397 1398 lsls r2, r3, #0x1a {load-use}
1393 1396 1397 1398 1399 bmi #0x4006e98 {}
1396 1397 1398 1399 1401 ldr r3, [sp, #0x20] {}
1397 1398 1401 1402 1404 ldr r3, [r3] {load-use}
1398 1401 1404 1405 1406 lsls r3, r3, #0x1c {load-use}
1401 1404 1405 1406 1407 bmi #0x4006ea6 {}
1404 1405 1406 1407 1409 ldr.w r1, [r4, #0x178] {}
1405 1406 1409 1410 1411 cmp r1, #0 {load-use}
1406 1409 1410 1411 1412 beq #0x4006e98 {}
1409 1410 1411 1412 1414 ldr r2, [r4, #0x38] {}
1410 1411 1412 1414 1415 movs r0, #0 {}
1411 1412 1414 1415 1417 ldr r3, [r4, #0x34] {}
1412 1414 1415 1417 1419 ldr.w lr, [r4, #0x184] {}
1414 1415 1417 1419 1421 ldr r2, [r2, #4] {}
1415 1417 1419 1421 1423 ldr r3, [r3, #4] {}
1417 1419 1421 1423 1425 str r0, [sp, #0x60] {}
1419 1421 1423 1425 1427 str r2, [sp, #0x38] {}
1421 1423 1425 1427 1429 str r3, [sp, #0x24] {}
1423 1425 1427 1429 1431 str r0, [sp, #0x64] {}
1425 1427 1429 1431 1432 cmp.w lr, #0 {}
1427 1429 1431 1432 1433 beq #0x4006ed2 {}
1429 1431 1432 1433 1435 ldr.w r3, [r4, #0x180] {}
1431 1432 1433 1435 1437 ldr.w r0, [r4, #0x17c] {}
1432 1433 1435 1437 1439 ldr r2, [sp, #0x28] {}
1433 1435 1437 1439 1441 str r3, [sp, #0x2c] {}
1435 1437 1439 1441 1443 ldr r3, [sp, #0x30] {}
1437 1439 1441 1443 1444 and r12, r2, #0x1f {}
1439 1441 1443 1444 1445 ands r0, r3 {}
1441 1443 1444 1445 1447 ldr r3, [sp, #0x2c] {}
1443 1444 1445 1447 1449 ldr.w r0, [lr, r0, lsl #2] {}
1444 1445 1447 1449 1450 lsr.w r3, r2, r3 {}
1445 1447 1449 1450 1451 and r3, r3, #0x1f {}
1447 1449 1450 1451 1452 mov r2, r12 {}
1449 1450 1451 1452 1453 lsr.w r3, r0, r3 {}
1450 1451 1452 1453 1454 lsrs r0, r2 {}
1451 1452 1453 1454 1455 ands r3, r0 {}
1452 1453 1454 1455 1456 lsls r0, r3, #0x1f {}
1453 1454 1455 1456 1457 bmi.w #0x4007180 {}
1454 1455 1456 1457 1458 mov.w r8, #1 {}
1455 1456 1457 1458 1460 ldr r3, [sp, #0x9c] {}
1456 1457 1460 1461 1462 cmp r3, #0 {load-use}
1457 1460 1461 1462 1463 ite eq {}
1460 1461 1462 1463 1464 moveq r3, #0 {}
1461 1462 1463 1464 1465 andne r3, r8, #1 {}
1462 1463 1464 1465 1466 cbz r3, #0x4006e98 {}
1463 1464 1465 1466 1468 ldr r3, [sp, #0x9c] {}
1464 1465 1468 1469 1471 ldr r0, [r3, #0xc] {load-use}
1465 1468 1471 1472 1473 cbz r0, #0x4006e98 {load-use}
1468 1471 1472 1473 1474 adds r5, #1 {}
1471 1472 1473 1474 1475 cmp r11, r5 {}
1472 1473 1474 1475 1476 bhi #0x4006df6 {bmispred}
1475 1476 1477 1478 1480 ldr r3, [r6], #4 {}
1476 1477 1480 1481 1483 ldr r4, [r3, #0x14] {load-use}
1477 1480 1483 1484 1485 cmp r4, r9 {load-use}
1480 1483 1484 1485 1486 beq #0x4006e98 {}
1483 1484 1485 1486 1487 ands r10, r7, #2 {}
1484 1485 1486 1487 1488 beq #0x4006e0e {bmispred}
1487 1488 1489 1490 1492 ldrb.w r3, [r4, #0x195] {}
1488 1489 1492 1493 1494 lsls r2, r3, #0x1a {load-use}
1489 1492 1493 1494 1495 bmi #0x4006e98 {}
1492 1493 1494 1495 1497 ldr r3, [sp, #0x20] {}
1493 1494 1497 1498 1500 ldr r3, [r3] {load-use}
1494 1497 1500 1501 1502 lsls r3, r3, #0x1c {load-use}
1497 1500 1501 1502 1503 bmi #0x4006ea6 {}
1500 1501 1502 1503 1505 ldr.w r1, [r4, #0x178] {}
1501 1502 1505 1506 1507 cmp r1, #0 {load-use}
1502 1505 1506 1507 1508 beq #0x4006e98 {}
1505 1506 1507 1508 1510 ldr r2, [r4, #0x38] {}
1506 1507 1508 1510 1511 movs r0, #0 {}
1507 1508 1510 1511 1513 ldr r3, [r4, #0x34] {}
1508 1510 1511 1513 1515 ldr.w lr, [r4, #0x184] {}
1510 1511 1513 1515 1517 ldr r2, [r2, #4] {}
1511 1513 1515 1517 1519 ldr r3, [r3, #4] {}
1513 1515 1517 1519 1521 str r0, [sp, #0x60] {}
1515 1517 1519 1521 1523 str r2, [sp, #0x38] {}
1517 1519 1521 1523 1525 str r3, [sp, #0x24] {}
1519 1521 1523 1525 1527 str r0, [sp, #0x64] {}
1521 1523 1525 1527 1528 cmp.w lr, #0 {}
1523 1525 1527 1528 1529 beq #0x4006ed2 {}
1525 1527 1528 1529 1531 ldr.w r3, [r4, #0x180] {}
1527 1528 1529 1531 1533 ldr.w r0, [r4, #0x17c] {}
1528 1529 1531 1533 1535 ldr r2, [sp, #0x28] {}
1529 1531 1533 1535 1537 str r3, [sp, #0x2c] {}
1531 1533 1535 1537 1539 ldr r3, [sp, #0x30] {}
1533 1535 1537 1539 1540 and r12, r2, #0x1f {}
1535 1537 1539 1540 1541 ands r0, r3 {}
1537 1539 1540 1541 1543 ldr r3, [sp, #0x2c] {}
1539 1540 1541 1543 1545 ldr.w r0, [lr, r0, lsl #2] {}
1540 1541 1543 1545 1546 lsr.w r3, r2, r3 {}
1541 1543 1545 1546 1547 and r3, r3, #0x1f {}
1543 1545 1546 1547 1548 mov r2, r12 {}
1545 1546 1547 1548 1549 lsr.w r3, r0, r3 {}
1546 1547 1548 1549 1550 lsrs r0, r2 {}
1547 1548 1549 1550 1551 ands r3, r0 {}
1548 1549 1550 1551 1552 lsls r0, r3, #0x1f {}
1549 1550 1551 1552 1553 bmi.w #0x4007180 {bmispred}
1552 1553 1554 1555 1557 ldr.w r8, [sp, #0x28] {}
1553 1554 1557 1558 1559 mov r0, r8 {load-use}
1554 1557 1558 1559 1560 bl #0x40135a4 {bmispred}
1559 1560 1561 1562 1563 cmp r1, #0 {}
1560 1561 1562 1563 1564 beq #0x401359a {}
1561 1562 1563 1564 1566 push.w {r0, r1, lr} {}
1562 1563 1564 1566 1567 bl #0x4013348 {bmispred}
1565 1566 1567 1568 1569 subs r2, r1, #1 {}
1566 1567 1568 1569 1570 it eq {}
1567 1568 1569 1570 1571 bxeq lr {}
1568 1569 1570 1571 1572 blo.w #0x401359a {}
1569 1570 1571 1572 1573 cmp r0, r1 {}
1570 1571 1572 1573 1574 bls.w #0x4013584 {}
1571 1572 1573 1574 1575 tst r1, r2 {}
1572 1573 1574 1575 1576 beq.w #0x401358c {}
1573 1574 1575 1576 1577 clz r3, r0 {}
1574 1575 1576 1577 1578 clz r2, r1 {}
1575 1576 1577 1578 1579 sub.w r3, r2, r3 {}
1576 1577 1578 1579 1580 rsb.w r3, r3, #0x1f {}
1577 1578 1579 1580 1581 adr r2, #0x10 {}
1578 1579 1580 1581 1582 add.w r3, r2, r3, lsl #4 {}
1579 1580 1581 1582 1583 mov.w r2, #0 {}
1580 1581 1582 1583 1584 mov pc, r3 {bmispred}
1583 1584 1585 1586 1587 cmp.w r0, r1, lsl #20 {}
1584 1585 1586 1587 1588 nop  {}
1585 1586 1587 1588 1589 adc.w r2, r2, r2 {}
1586 1587 1588 1589 1590 it hs {}
1587 1588 1589 1590 1591 subhs.w r0, r0, r1, lsl #20 {}
1588 1589 1590 1591 1592 cmp.w r0, r1, lsl #19 {}
1589 1590 1591 1592 1593 nop  {}
1590 1591 1592 1593 1594 adc.w r2, r2, r2 {}
1591 1592 1593 1594 1595 it hs {}
1592 1593 1594 1595 1596 subhs.w r0, r0, r1, lsl #19 {}
1593 1594 1595 1596 1597 cmp.w r0, r1, lsl #18 {}
1594 1595 1596 1597 1598 nop  {}
1595 1596 1597 1598 1599 adc.w r2, r2, r2 {}
1596 1597 1598 1599 1600 it hs {}
1597 1598 1599 1600 1601 subhs.w r0, r0, r1, lsl #18 {}
1598 1599 1600 1601 1602 cmp.w r0, r1, lsl #17 {}
1599 1600 1601 1602 1603 nop  {}
1600 1601 1602 1603 1604 adc.w r2, r2, r2 {}
1601 1602 1603 1604 1605 it hs {}
1602 1603 1604 1605 1606 subhs.w r0, r0, r1, lsl #17 {}
1603 1604 1605 1606 1607 cmp.w r0, r1, lsl #16 {}
1604 1605 1606 1607 1608 nop  {}
1605 1606 1607 1608 1609 adc.w r2, r2, r2 {}
1606 1607 1608 1609 1610 it hs {}
1607 1608 1609 1610 1611 subhs.w r0, r0, r1, lsl #16 {}
1608 1609 1610 1611 1612 cmp.w r0, r1, lsl #15 {}
1609 1610 1611 1612 1613 nop  {}
1610 1611 1612 1613 1614 adc.w r2, r2, r2 {}
1611 1612 1613 1614 1615 it hs {}
1612 1613 1614 1615 1616 subhs.w r0, r0, r1, lsl #15 {}
1613 1614 1615 1616 1617 cmp.w r0, r1, lsl #14 {}
1614 1615 1616 1617 1618 nop  {}
1615 1616 1617 1618 1619 adc.w r2, r2, r2 {}
1616 1617 1618 1619 1620 it hs {}
1617 1618 1619 1620 1621 subhs.w r0, r0, r1, lsl #14 {}
1618 1619 1620 1621 1622 cmp.w r0, r1, lsl #13 {}
1619 1620 1621 1622 1623 nop  {}
1620 1621 1622 1623 1624 adc.w r2, r2, r2 {}
1621 1622 1623 1624 1625 it hs {}
1622 1623 1624 1625 1626 subhs.w r0, r0, r1, lsl #13 {}
1623 1624 1625 1626 1627 cmp.w r0, r1, lsl #12 {}
1624 1625 1626 1627 1628 nop  {}
1625 1626 1627 1628 1629 adc.w r2, r2, r2 {}
1626 1627 1628 1629 1630 it hs {}
1627 1628 1629 1630 1631 subhs.w r0, r0, r1, lsl #12 {}
1628 1629 1630 1631 1632 cmp.w r0, r1, lsl #11 {}
1629 1630 1631 1632 1633 nop  {}
1630 1631 1632 1633 1634 adc.w r2, r2, r2 {}
1631 1632 1633 1634 1635 it hs {}
1632 1633 1634 1635 1636 subhs.w r0, r0, r1, lsl #11 {}
1633 1634 1635 1636 1637 cmp.w r0, r1, lsl #10 {}
1634 1635 1636 1637 1638 nop  {}
1635 1636 1637 1638 1639 adc.w r2, r2, r2 {}
1636 1637 1638 1639 1640 it hs {}
1637 1638 1639 1640 1641 subhs.w r0, r0, r1, lsl #10 {}
1638 1639 1640 1641 1642 cmp.w r0, r1, lsl #9 {}
1639 1640 1641 1642 1643 nop  {}
1640 1641 1642 1643 1644 adc.w r2, r2, r2 {}
1641 1642 1643 1644 1645 it hs {}
1642 1643 1644 1645 1646 subhs.w r0, r0, r1, lsl #9 {}
1643 1644 1645 1646 1647 cmp.w r0, r1, lsl #8 {}
1644 1645 1646 1647 1648 nop  {}
1645 1646 1647 1648 1649 adc.w r2, r2, r2 {}
1646 1647 1648 1649 1650 it hs {}
1647 1648 1649 1650 1651 subhs.w r0, r0, r1, lsl #8 {}
1648 1649 1650 1651 1652 cmp.w r0, r1, lsl #7 {}
1649 1650 1651 1652 1653 nop  {}
1650 1651 1652 1653 1654 adc.w r2, r2, r2 {}
1651 1652 1653 1654 1655 it hs {}
1652 1653 1654 1655 1656 subhs.w r0, r0, r1, lsl #7 {}
1653 1654 1655 1656 1657 cmp.w r0, r1, lsl #6 {}
1654 1655 1656 1657 1658 nop  {}
1655 1656 1657 1658 1659 adc.w r2, r2, r2 {}
1656 1657 1658 1659 1660 it hs {}
1657 1658 1659 1660 1661 subhs.w r0, r0, r1, lsl #6 {}
1658 1659 1660 1661 1662 cmp.w r0, r1, lsl #5 {}
1659 1660 1661 1662 1663 nop  {}
1660 1661 1662 1663 1664 adc.w r2, r2, r2 {}
1661 1662 1663 1664 1665 it hs {}
1662 1663 1664 1665 1666 subhs.w r0, r0, r1, lsl #5 {}
1663 1664 1665 1666 1667 cmp.w r0, r1, lsl #4 {}
1664 1665 1666 1667 1668 nop  {}
1665 1666 1667 1668 1669 adc.w r2, r2, r2 {}
1666 1667 1668 1669 1670 it hs {}
1667 1668 1669 1670 1671 subhs.w r0, r0, r1, lsl #4 {}
1668 1669 1670 1671 1672 cmp.w r0, r1, lsl #3 {}
1669 1670 1671 1672 1673 nop  {}
1670 1671 1672 1673 1674 adc.w r2, r2, r2 {}
1671 1672 1673 1674 1675 it hs {}
1672 1673 1674 1675 1676 subhs.w r0, r0, r1, lsl #3 {}
1673 1674 1675 1676 1677 cmp.w r0, r1, lsl #2 {}
1674 1675 1676 1677 1678 nop  {}
1675 1676 1677 1678 1679 adc.w r2, r2, r2 {}
1676 1677 1678 1679 1680 it hs {}
1677 1678 1679 1680 1681 subhs.w r0, r0, r1, lsl #2 {}
1678 1679 1680 1681 1682 cmp.w r0, r1, lsl #1 {}
1679 1680 1681 1682 1683 nop  {}
1680 1681 1682 1683 1684 adc.w r2, r2, r2 {}
1681 1682 1683 1684 1685 it hs {}
1682 1683 1684 1685 1686 subhs.w r0, r0, r1, lsl #1 {}
1683 1684 1685 1686 1687 cmp.w r0, r1 {}
1684 1685 1686 1687 1688 nop  {}
1685 1686 1687 1688 1689 adc.w r2, r2, r2 {}
1686 1687 1688 1689 1690 it hs {}
1687 1688 1689 1690 1691 subhs.w r0, r0, r1 {}
1688 1689 1690 1691 1692 mov r0, r2 {}
1689 1690 1691 1692 1693 bx lr {bmispred}
1692 1693 1694 1695 1697 pop.w {r1, r2, lr} {}
1693 1694 1695 1697 1698 mul r3, r2, r0 {}
1694 1695 1697 1698 1699 sub.w r1, r1, r3 {}
1695 1697 1698 1699 1700 bx lr {bmispred}
1699 1700 1701 1702 1704 ldr.w r3, [r4, #0x188] {}
1700 1701 1704 1705 1707 ldr.w r3, [r3, r1, lsl #2] {load-use}
1701 1704 1707 1708 1709 cmp r3, #0 {load-use}
1704 1707 1708 1709 1710 beq.w #0x4006e74 {}
1707 1708 1709 1710 1712 ldr.w r2, [r4, #0x18c] {}
1708 1709 1710 1712 1713 add r1, sp, #0x60 {}
1709 1710 1712 1713 1715 str.w r10, [sp, #0x54] {}
1710 1712 1713 1715 1716 add.w r3, r2, r3, lsl #2 {}
1712 1713 1715 1716 1718 str r1, [sp, #0x2c] {}
1713 1715 1716 1718 1720 str r6, [sp, #0x58] {}
1715 1716 1718 1720 1721 add r1, sp, #0x64 {}
1716 1718 1720 1721 1723 str r5, [sp, #0x98] {}
1718 1720 1721 1723 1724 mov r6, r3 {}
1720 1721 1723 1724 1726 str.w r9, [sp, #0xa4] {}
1721 1723 1724 1726 1727 mov r5, r4 {}
1723 1724 1726 1727 1729 str.w r11, [sp, #0x5c] {}
1724 1726 1727 1729 1731 str r1, [sp, #0x50] {}
1726 1727 1729 1731 1733 ldr.w r10, [sp, #0x3c] {}
1727 1729 1731 1733 1735 ldr.w r9, [sp, #0x38] {}
1729 1731 1733 1735 1737 ldr.w r11, [sp, #0x34] {}
1731 1733 1735 1737 1738 b #0x40071d4 {bmispred}
1736 1737 1738 1739 1741 ldr r3, [r6] {}
1737 1738 1741 1742 1743 eor.w r2, r8, r3 {load-use}
1738 1741 1742 1743 1744 lsrs r2, r2, #1 {}
1741 1742 1743 1744 1745 bne #0x40071ca {bmispred}
1744 1745 1746 1747 1748 lsls r1, r3, #0x1f {}
1745 1746 1747 1748 1749 add.w r6, r6, #4 {}
1746 1747 1748 1749 1750 bmi.w #0x4007382 {}
1747 1748 1749 1750 1752 ldr r3, [r6] {}
1748 1749 1752 1753 1754 eor.w r2, r8, r3 {load-use}
1749 1752 1753 1754 1755 lsrs r2, r2, #1 {}
1752 1753 1754 1755 1756 bne #0x40071ca {bmispred}
1755 1756 1757 1758 1759 lsls r1, r3, #0x1f {}
1756 1757 1758 1759 1760 add.w r6, r6, #4 {}
1757 1758 1759 1760 1761 bmi.w #0x4007382 {}
1758 1759 1760 1761 1763 ldr r3, [r6] {}
1759 1760 1763 1764 1765 eor.w r2, r8, r3 {load-use}
1760 1763 1764 1765 1766 lsrs r2, r2, #1 {}
1763 1764 1765 1766 1767 bne #0x40071ca {}
1764 1765 1766 1767 1768 lsls r1, r3, #0x1f {}
1765 1766 1767 1768 1769 add.w r6, r6, #4 {}
1766 1767 1768 1769 1770 bmi.w #0x4007382 {}
1767 1768 1769 1770 1772 ldr r3, [r6] {}
1768 1769 1772 1773 1774 eor.w r2, r8, r3 {load-use}
1769 1772 1773 1774 1775 lsrs r2, r2, #1 {}
1772 1773 1774 1775 1776 bne #0x40071ca {}
1773 1774 1775 1776 1777 lsls r1, r3, #0x1f {}
1774 1775 1776 1777 1778 add.w r6, r6, #4 {}
1775 1776 1777 1778 1779 bmi.w #0x4007382 {}
1776 1777 1778 1779 1781 ldr r3, [r6] {}
1777 1778 1781 1782 1783 eor.w r2, r8, r3 {load-use}
1778 1781 1782 1783 1784 lsrs r2, r2, #1 {}
1781 1782 1783 1784 1785 bne #0x40071ca {bmispred}
1784 1785 1786 1787 1789 ldr.w r4, [r5, #0x18c] {}
1785 1786 1787 1789 1791 ldr r2, [sp, #0x2c] {}
1786 1787 1789 1791 1792 subs r4, r6, r4 {}
1787 1789 1791 1792 1794 ldr r1, [sp, #0x50] {}
1789 1791 1792 1794 1796 ldr r0, [sp, #0x24] {}
1791 1792 1794 1796 1797 asrs r4, r4, #2 {}
1792 1794 1796 1797 1799 str r2, [sp, #0x18] {}
1794 1796 1797 1799 1801 str r1, [sp, #0x14] {}
1796 1797 1799 1801 1802 mov r1, r10 {}
1797 1799 1801 1802 1804 str r0, [sp, #0xc] {}
1799 1801 1802 1804 1805 add.w lr, r9, r4, lsl #4 {}
1801 1802 1804 1805 1807 ldr r3, [sp, #0xa0] {}
1802 1804 1805 1807 1808 mov r0, r11 {}
1804 1805 1807 1808 1810 ldr r2, [sp, #0x9c] {}
1805 1807 1808 1810 1812 str r5, [sp, #0x10] {}
1807 1808 1810 1812 1814 str r4, [sp, #8] {}
1808 1810 1812 1814 1816 str r7, [sp] {}
1810 1812 1814 1816 1818 str.w lr, [sp, #4] {}
1812 1814 1816 1818 1819 bl #0x4006c98 {bmispred}
1817 1818 1819 1820 1822 push.w {r3, r4, r5, r6, r7, r8, r9, lr} {}
1818 1819 1820 1822 1824 ldr r4, [sp, #0x24] {}
1819 1820 1822 1824 1826 ldr.w r9, [sp, #0x30] {}
1820 1822 1824 1826 1828 ldrb r5, [r4, #0xc] {}
1822 1824 1826 1828 1830 ldr r6, [r4, #4] {}
1824 1826 1828 1830 1831 and r5, r5, #0xf {}
1826 1828 1830 1831 1832 clz r6, r6 {}
1828 1830 1831 1832 1833 cmp r5, #6 {}
1830 1831 1832 1833 1834 lsr.w r6, r6, #5 {}
1831 1832 1833 1834 1835 it eq {}
1832 1833 1834 1835 1836 moveq r6, #0 {}
1833 1834 1835 1836 1837 cmp r6, #0 {}
1834 1835 1836 1837 1838 bne #0x4006d5a {}
1835 1836 1837 1838 1840 ldrh r6, [r4, #0xe] {}
1836 1837 1838 1840 1842 ldr r7, [sp, #0x20] {}
1837 1838 1840 1842 1843 cmp r6, #0 {}
1838 1840 1842 1843 1844 ite ne {}
1840 1842 1843 1844 1845 movne r7, #0 {}
1842 1843 1844 1845 1846 andeq r7, r7, #1 {}
1843 1844 1845 1846 1847 cmp r7, #0 {}
1844 1845 1846 1847 1848 bne #0x4006d5a {}
1845 1846 1847 1848 1849 movw r6, #0x467 {}
1846 1847 1848 1849 1850 asr.w r5, r6, r5 {}
1847 1848 1849 1850 1851 lsls r5, r5, #0x1f {}
1848 1849 1850 1851 1852 bpl #0x4006d5a {}
1849 1850 1851 1852 1853 mov r6, r3 {}
1850 1851 1852 1853 1854 mov r3, r1 {}
1851 1852 1853 1854 1855 cmp r4, r3 {}
1852 1853 1854 1855 1856 mov r5, r2 {}
1853 1854 1855 1856 1857 mov r1, r0 {}
1854 1855 1856 1857 1858 beq #0x4006cf4 {bmispred}
1857 1858 1859 1860 1862 ldr.w r3, [r9, #0x1a4] {}
1858 1859 1860 1862 1863 cbz r5, #0x4006d2e {}
1859 1860 1862 1863 1864 cmp r3, #0 {}
1860 1862 1863 1864 1865 beq #0x4006d6e {}
1862 1863 1864 1865 1867 ldr r2, [sp, #0x28] {}
1863 1864 1865 1867 1869 ldr r1, [r5, #4] {}
1864 1865 1867 1869 1871 ldrh.w r8, [r3, r2, lsl #1] {}
1865 1867 1869 1871 1873 ldr.w r2, [r9, #0x170] {}
1867 1869 1871 1873 1874 ubfx r3, r8, #0, #0xf {}
1869 1871 1873 1874 1875 lsls r3, r3, #4 {}
1871 1873 1874 1875 1876 adds r0, r2, r3 {}
1873 1874 1875 1876 1878 ldr r6, [r0, #4] {}
1874 1875 1878 1879 1880 cmp r6, r1 {load-use}
1875 1878 1879 1880 1881 beq #0x4006d60 {bmispred}
1880 1881 1882 1883 1885 ldr r0, [r2, r3] {}
1881 1882 1883 1885 1887 ldr r1, [r5] {}
1882 1883 1885 1887 1888 bl #0x4012090 {bmispred}
1886 1887 1888 1889 1891 ldrb r2, [r0] {}
1887 1888 1889 1891 1893 ldrb r3, [r1] {}
1888 1889 1891 1893 1894 cmp r2, #1 {}
1889 1891 1893 1894 1895 it hs {}
1891 1893 1894 1895 1896 cmphs r2, r3 {}
1893 1894 1895 1896 1897 bne #0x4012080 {}
1894 1895 1896 1897 1899 strd r4, r5, [sp, #-0x10]! {}
1895 1896 1897 1899 1900 orr.w r4, r0, r1 {}
1896 1897 1899 1900 1902 strd r6, r7, [sp, #8] {}
1897 1899 1900 1902 1903 mvn r12, #0 {}
1899 1900 1902 1903 1904 lsl.w r2, r4, #0x1d {}
1900 1902 1903 1904 1905 cbz r2, #0x4012100 {}
1902 1903 1904 1905 1906 eor.w r4, r0, r1 {}
1903 1904 1905 1906 1907 tst.w r4, #7 {}
1904 1905 1906 1907 1908 bne #0x401219a {}
1905 1906 1907 1908 1909 and r4, r0, #7 {}
1906 1907 1908 1909 1910 bic r0, r0, #7 {}
1907 1908 1909 1910 1911 and r5, r4, #3 {}
1908 1909 1910 1911 1912 bic r1, r1, #7 {}
1909 1910 1911 1912 1913 lsl.w r5, r5, #3 {}
1910 1911 1912 1913 1915 ldrd r2, r3, [r0], #0x10 {}
1911 1912 1913 1915 1916 tst.w r4, #4 {}
1912 1913 1915 1916 1918 ldrd r6, r7, [r1], #0x10 {}
1913 1915 1916 1918 1919 lsl.w r4, r12, r5 {}
1915 1916 1918 1919 1920 orn r2, r2, r4 {}
1916 1918 1919 1920 1921 orn r6, r6, r4 {}
1918 1919 1920 1921 1922 beq #0x4012108 {bmispred}
1921 1922 1923 1924 1925 uadd8 r5, r2, r12 {}
1922 1923 1924 1925 1926 eor.w r4, r2, r6 {}
1923 1924 1925 1926 1927 sel r4, r4, r12 {}
1924 1925 1926 1927 1928 cbnz r4, #0x4012172 {}
1925 1926 1927 1928 1929 uadd8 r5, r3, r12 {}
1926 1927 1928 1929 1930 eor.w r5, r3, r7 {}
1927 1928 1929 1930 1931 sel r5, r5, r12 {}
1928 1929 1930 1931 1932 cbnz r5, #0x401214a {}
1929 1930 1931 1932 1934 ldrd r2, r3, [r0, #-0x8] {}
1930 1931 1932 1934 1936 ldrd r6, r7, [r1, #-0x8] {}
1931 1932 1934 1936 1937 uadd8 r5, r2, r12 {}
1932 1934 1936 1937 1938 eor.w r4, r2, r6 {}
1934 1936 1937 1938 1939 sel r4, r4, r12 {}
1936 1937 1938 1939 1940 uadd8 r5, r3, r12 {}
1937 1938 1939 1940 1941 eor.w r5, r3, r7 {}
1938 1939 1940 1941 1942 sel r5, r5, r12 {}
1939 1940 1941 1942 1943 orrs r5, r4 {}
1940 1941 1942 1943 1944 beq #0x4012100 {}
1941 1942 1943 1944 1945 cbnz r4, #0x4012172 {}
1942 1943 1944 1945 1946 rev r5, r5 {}
1943 1944 1945 1946 1947 clz r4, r5 {}
1944 1945 1946 1947 1948 bic r4, r4, #7 {}
1945 1946 1947 1948 1949 lsr.w r1, r7, r4 {}
1946 1947 1948 1949 1951 ldrd r6, r7, [sp, #8] {}
1947 1948 1949 1951 1952 lsr.w r3, r3, r4 {}
1948 1949 1951 1952 1953 and r0, r3, #0xff {}
1949 1951 1952 1953 1954 and r1, r1, #0xff {}
1951 1952 1953 1954 1956 ldrd r4, r5, [sp], #0x10 {}
1952 1953 1954 1956 1957 sub.w r0, r0, r1 {}
1953 1954 1956 1957 1958 bx lr {bmispred}
1957 1958 1959 1960 1961 cmp r0, #0 {}
1958 1959 1960 1961 1962 bne #0x4006d18 {}
1959 1960 1961 1962 1963 b #0x4006d28 {bmispred}
1962 1963 1964 1965 1966 mov r0, r4 {}
1963 1964 1965 1966 1968 pop.w {r3, r4, r5, r6, r7, r8, r9, pc} {bmispred}
1966 1967 1968 1969 1970 cmp r0, #0 {}
1967 1968 1969 1970 1971 bne.w #0x40074e6 {bmispred}
1970 1971 1972 1973 1974 mov r8, r4 {}
1971 1972 1973 1974 1975 mov r3, r0 {}
1972 1973 1974 1975 1976 mov r4, r5 {}
1973 1974 1975 1976 1978 ldr.w r10, [sp, #0x54] {}
1974 1975 1976 1978 1980 ldr r6, [sp, #0x58] {}
1975 1976 1978 1980 1982 ldr r5, [sp, #0x98] {}
1976 1978 1980 1982 1984 ldr.w r9, [sp, #0xa4] {}
1978 1980 1982 1984 1986 ldr.w r11, [sp, #0x5c] {}
1980 1982 1984 1986 1987 b #0x4006f60 {bmispred}
1985 1986 1987 1988 1990 ldr r2, [sp, #0xac] {}
1986 1987 1990 1991 1992 cmp r2, #0 {load-use}
1987 1990 1991 1992 1993 beq.w #0x40070da {}
1990 1991 1992 1993 1995 ldrb r2, [r3, #0xc] {}
1991 1992 1995 1996 1997 lsrs r2, r2, #4 {load-use}
1992 1995 1996 1997 1998 cmp r2, #2 {}
1995 1996 1997 1998 1999 beq #0x4006f82 {bmispred}
1998 1999 2000 2001 2003 ldr r2, [sp, #0x40] {}
1999 2000 2003 2004 2006 ldr r2, [r2, #0x34] {load-use}
2000 2003 2006 2007 2008 cmp r2, #0 {load-use}
2003 2006 2007 2008 2009 bne.w #0x400735c {}
2006 2007 2008 2009 2011 ldr r2, [sp, #0x90] {}
2007 2008 2009 2011 2012 movs r0, #1 {}
2008 2009 2011 2012 2014 str r3, [r2] {}
2009 2011 2012 2014 2016 str r4, [r2, #4] {}
2011 2012 2014 2016 2017 add sp, #0x6c {}
2012 2014 2016 2017 2019 pop.w {r4, r5, r6, r7, r8, r9, r10, r11, pc} {bmispred}
2017 2018 2019 2020 2021 subs r2, r0, #0 {}
2018 2019 2020 2021 2022 ble #0x400763a {}
2019 2020 2021 2022 2024 ldr r3, [r7, #0x28] {}
2020 2021 2022 2024 2026 str.w r4, [r7, #0x8c] {}
2021 2022 2024 2026 2027 mov r4, r8 {}
2022 2024 2026 2027 2029 ldr.w r8, [r7, #0x8c] {}
2024 2026 2027 2029 2030 cmp r3, #0 {}
2026 2027 2029 2030 2031 beq.w #0x40078f8 {}
2027 2029 2030 2031 2033 ldr.w r3, [r10] {}
2029 2030 2033 2034 2035 cbz r3, #0x40076b0 {load-use}
2030 2033 2034 2035 2037 ldrb r2, [r3, #0xd] {}
2033 2034 2037 2038 2039 and r2, r2, #3 {load-use}
2034 2037 2038 2039 2040 cmp r2, #3 {}
2037 2038 2039 2040 2041 beq #0x40076ec {}
2038 2039 2040 2041 2043 ldr r4, [r7, #0x2c] {}
2039 2040 2041 2043 2044 movs r5, #0 {}
2040 2041 2043 2044 2046 ldrb.w r3, [r4, #0x194] {}
2041 2043 2046 2047 2048 and r3, r3, #3 {load-use}
2043 2046 2047 2048 2049 cmp r3, #2 {}
2046 2047 2048 2049 2050 beq #0x40077a8 {}
2047 2048 2049 2050 2051 mov r0, r4 {}
2048 2049 2050 2051 2053 ldr.w r3, [r0, #0x1fc] {}
2049 2050 2053 2054 2055 cmp r3, #0 {load-use}
2050 2053 2054 2055 2056 beq.w #0x4007a54 {}
2053 2054 2055 2056 2058 ldr.w r3, [pc, #0xa54] {}
2054 2055 2056 2058 2059 movw r2, #0x804 {}
2055 2056 2058 2059 2060 add r3, pc {}
2056 2058 2059 2060 2062 ldr r3, [r3] {}
2058 2059 2062 2063 2064 tst r3, r2 {load-use}
2059 2062 2063 2064 2065 bne.w #0x400791e {}
2062 2063 2064 2065 2067 ldr r1, [r7, #0x28] {}
2063 2064 2065 2067 2069 str.w r1, [r10] {}
2064 2065 2067 2069 2070 adds r7, #0x5c {}
2065 2067 2069 2070 2071 mov sp, r7 {}
2067 2069 2070 2071 2073 pop.w {r4, r5, r6, r7, r8, r9, r10, r11, pc} {bmispred}
2071 2072 2073 2074 2076 ldr r3, [r7, #0x54] {}
2072 2073 2074 2076 2078 str.w r3, [r6, #0x224] {}
2073 2074 2076 2078 2079 mov r2, r0 {}
2074 2076 2078 2079 2081 str.w r0, [r6, #0x220] {}
2076 2078 2079 2081 2082 cmp r2, #0 {}
2078 2079 2081 2082 2083 beq.w #0x4008e00 {}
2079 2081 2082 2083 2085 ldr r0, [r2] {}
2081 2082 2083 2085 2087 ldr r1, [r3, #4] {}
2082 2083 2087 2088 2089 adds r1, r0, r1 {load-use}
2083 2087 2088 2089 2091 str r1, [r7, #0x3c] {}
2087 2088 2089 2091 2093 ldrb r1, [r3, #0xc] {}
2088 2089 2093 2094 2095 and r1, r1, #0xf {load-use}
2089 2093 2094 2095 2096 cmp r1, #0xa {}
2093 2094 2095 2096 2097 beq.w #0x4009094 {}
2094 2095 2096 2097 2098 cmp r5, #0x12 {}
2095 2096 2097 2098 2099 beq.w #0x400907a {}
2096 2097 2098 2099 2100 bhi #0x4008d1a {}
2097 2098 2099 2100 2101 cmp r5, #2 {}
2098 2099 2100 2101 2102 beq.w #0x4009000 {bmispred}
2101 2102 2103 2104 2106 ldr r3, [r7, #0x14] {}
2102 2103 2106 2107 2108 cmp r6, r3 {load-use}
2103 2106 2107 2108 2109 beq.w #0x400988e {}
2106 2107 2108 2109 2111 ldr r3, [r7, #0x48] {}
2107 2108 2109 2111 2112 add.w r10, r10, #8 {}
2108 2109 2111 2112 2114 ldr r2, [r7, #0x3c] {}
2109 2111 2112 2114 2116 ldr r3, [r3] {}
2111 2112 2114 2116 2117 add r3, r2 {}
2112 2114 2116 2117 2119 str.w r3, [r9, r8] {}
2114 2116 2117 2119 2121 ldr r3, [r7, #0x2c] {}
2116 2117 2121 2122 2123 cmp r3, r10 {load-use}
2117 2121 2122 2123 2124 bhi.w #0x4008c0a {bmispred}
2123 2124 2125 2126 2128 ldr.w r5, [r10, #4] {}
2124 2125 2126 2128 2130 ldr.w r8, [r10] {}
2125 2126 2128 2130 2132 ldr.w r1, [r6, #0x170] {}
2126 2128 2130 2132 2133 add.w r2, r9, r8 {}
2128 2130 2132 2133 2135 str r2, [r7, #0x48] {}
2130 2132 2133 2135 2137 ldr r2, [r7, #0x34] {}
2132 2133 2135 2137 2138 lsrs r3, r5, #8 {}
2133 2135 2137 2138 2139 uxtb r5, r5 {}
2135 2137 2138 2139 2140 lsl.w r11, r3, #4 {}
2137 2138 2139 2140 2141 cmp r5, #0x17 {}
2138 2139 2140 2141 2143 ldrh.w r3, [r2, r3, lsl #1] {}
2139 2140 2141 2143 2145 ldr r2, [r7, #0x4c] {}
2140 2141 2145 2146 2147 add.w r4, r2, r11 {load-use}
2141 2145 2146 2147 2149 str r4, [r7, #0x54] {}
2145 2146 2147 2149 2150 beq.w #0x4008e66 {}
2146 2147 2149 2150 2151 cmp r5, #0 {}
2147 2149 2150 2151 2152 beq #0x4008d06 {}
2149 2150 2151 2152 2154 ldrb r2, [r4, #0xc] {}
2150 2151 2154 2155 2156 lsrs r2, r2, #4 {load-use}
2151 2154 2155 2156 2157 beq #0x4008d14 {}
2154 2155 2156 2157 2159 ldr.w r2, [r6, #0x218] {}
2155 2156 2159 2160 2161 cmp r4, r2 {load-use}
2156 2159 2160 2161 2162 beq.w #0x400919c {bmispred}
2161 2162 2163 2164 2165 cmp r5, #0x11 {}
2162 2163 2164 2165 2166 it ne {}
2163 2164 2165 2166 2167 cmpne r5, #0x16 {}
2164 2165 2166 2167 2168 itet eq {}
2165 2166 2167 2168 2169 moveq.w lr, #1 {}
2166 2167 2168 2169 2170 movne.w lr, #0 {}
2167 2168 2169 2170 2171 moveq r2, lr {}
2168 2169 2170 2171 2172 bne.w #0x4009332 {bmispred}
2171 2172 2173 2174 2175 sub.w r2, r5, #0x12 {}
2172 2173 2174 2175 2176 cmp r5, #0xd {}
2173 2174 2175 2176 2177 it ne {}
2174 2175 2176 2177 2178 cmpne r2, #1 {}
2175 2176 2177 2178 2179 ite ls {}
2176 2177 2178 2179 2180 movls r2, #1 {}
2177 2178 2179 2180 2181 movhi r2, #0 {}
2178 2179 2180 2181 2182 b #0x40091b2 {bmispred}
2181 2182 2183 2184 2185 cmp r5, #0x14 {}
2182 2183 2184 2185 2186 mov r12, r2 {}
2183 2184 2185 2186 2187 beq.w #0x4009958 {}
2184 2185 2186 2187 2188 cmp r5, #0x15 {}
2185 2186 2187 2188 2189 beq.w #0x4009372 {}
2186 2187 2188 2189 2191 ldr.w r0, [r6, #0x21c] {}
2187 2188 2191 2192 2193 cmp r0, r2 {load-use}
2188 2191 2192 2193 2194 beq.w #0x4009382 {bmispred}
2193 2194 2195 2196 2198 ldr r1, [pc, #0xc4] {}
2194 2195 2196 2198 2200 ldr.w r3, [r6, #0x224] {}
2195 2196 2198 2200 2201 add r1, pc {}
2196 2198 2200 2201 2203 ldr.w r2, [r1, #0x50c] {}
2198 2200 2201 2203 2205 str r3, [r7, #0x54] {}
2200 2201 2203 2205 2206 adds r2, #1 {}
2201 2203 2205 2206 2208 str.w r2, [r1, #0x50c] {}
2203 2205 2206 2208 2210 ldr.w r2, [r6, #0x220] {}
2205 2206 2208 2210 2211 b #0x4008cc4 {bmispred}
2209 2210 2211 2212 2213 cmp r2, #0 {}
2210 2211 2212 2213 2214 beq.w #0x4008e00 {}
2211 2212 2213 2214 2216 ldr r0, [r2] {}
2212 2213 2214 2216 2218 ldr r1, [r3, #4] {}
2213 2214 2218 2219 2220 adds r1, r0, r1 {load-use}
2214 2218 2219 2220 2222 str r1, [r7, #0x3c] {}
2218 2219 2220 2222 2224 ldrb r1, [r3, #0xc] {}
2219 2220 2224 2225 2226 and r1, r1, #0xf {load-use}
2220 2224 2225 2226 2227 cmp r1, #0xa {}
2224 2225 2226 2227 2228 beq.w #0x4009094 {}
2225 2226 2227 2228 2229 cmp r5, #0x12 {}
2226 2227 2228 2229 2230 beq.w #0x400907a {}
2227 2228 2229 2230 2231 bhi #0x4008d1a {}
2228 2229 2230 2231 2232 cmp r5, #2 {}
2229 2230 2231 2232 2233 beq.w #0x4009000 {}
2230 2231 2232 2233 2235 ldr r3, [r7, #0x14] {}
2231 2232 2235 2236 2237 cmp r6, r3 {load-use}
2232 2235 2236 2237 2238 beq.w #0x400988e {}
2235 2236 2237 2238 2240 ldr r3, [r7, #0x48] {}
2236 2237 2238 2240 2241 add.w r10, r10, #8 {}
2237 2238 2240 2241 2243 ldr r2, [r7, #0x3c] {}
2238 2240 2241 2243 2245 ldr r3, [r3] {}
2240 2241 2243 2245 2246 add r3, r2 {}
2241 2243 2245 2246 2248 str.w r3, [r9, r8] {}
2243 2245 2246 2248 2250 ldr r3, [r7, #0x2c] {}
2245 2246 2250 2251 2252 cmp r3, r10 {load-use}
2246 2250 2251 2252 2253 bhi.w #0x4008c0a {}
2250 2251 2252 2253 2255 ldr.w r5, [r10, #4] {}
2251 2252 2253 2255 2257 ldr.w r8, [r10] {}
2252 2253 2255 2257 2259 ldr.w r1, [r6, #0x170] {}
2253 2255 2257 2259 2260 add.w r2, r9, r8 {}
2255 2257 2259 2260 2262 str r2, [r7, #0x48] {}
2257 2259 2260 2262 2264 ldr r2, [r7, #0x34] {}
2259 2260 2262 2264 2265 lsrs r3, r5, #8 {}
2260 2262 2264 2265 2266 uxtb r5, r5 {}
2262 2264 2265 2266 2267 lsl.w r11, r3, #4 {}
2264 2265 2266 2267 2268 cmp r5, #0x17 {}
2265 2266 2267 2268 2270 ldrh.w r3, [r2, r3, lsl #1] {}
2266 2267 2268 2270 2272 ldr r2, [r7, #0x4c] {}
2267 2268 2272 2273 2274 add.w r4, r2, r11 {load-use}
2268 2272 2273 2274 2276 str r4, [r7, #0x54] {}
2272 2273 2274 2276 2277 beq.w #0x4008e66 {}
2273 2274 2276 2277 2278 cmp r5, #0 {}
2274 2276 2277 2278 2279 beq #0x4008d06 {}
2276 2277 2278 2279 2281 ldrb r2, [r4, #0xc] {}
2277 2278 2281 2282 2283 lsrs r2, r2, #4 {load-use}
2278 2281 2282 2283 2284 beq #0x4008d14 {}
2281 2282 2283 2284 2286 ldr.w r2, [r6, #0x218] {}
2282 2283 2286 2287 2288 cmp r4, r2 {load-use}
2283 2286 2287 2288 2289 beq.w #0x400919c {bmispred}
2288 2289 2290 2291 2292 cmp r5, #0x11 {}
2289 2290 2291 2292 2293 it ne {}
2290 2291 2292 2293 2294 cmpne r5, #0x16 {}
2291 2292 2293 2294 2295 itet eq {}
2292 2293 2294 2295 2296 moveq.w lr, #1 {}
2293 2294 2295 2296 2297 movne.w lr, #0 {}
2294 2295 2296 2297 2298 moveq r2, lr {}
2295 2296 2297 2298 2299 bne.w #0x4009332 {bmispred}
2298 2299 2300 2301 2302 sub.w r2, r5, #0x12 {}
2299 2300 2301 2302 2303 cmp r5, #0xd {}
2300 2301 2302 2303 2304 it ne {}
2301 2302 2303 2304 2305 cmpne r2, #1 {}
2302 2303 2304 2305 2306 ite ls {}
2303 2304 2305 2306 2307 movls r2, #1 {}
2304 2305 2306 2307 2308 movhi r2, #0 {}
2305 2306 2307 2308 2309 b #0x40091b2 {}
2306 2307 2308 2309 2310 cmp r5, #0x14 {}
2307 2308 2309 2310 2311 mov r12, r2 {}
2308 2309 2310 2311 2312 beq.w #0x4009958 {}
2309 2310 2311 2312 2313 cmp r5, #0x15 {}
2310 2311 2312 2313 2314 beq.w #0x4009372 {}
2311 2312 2313 2314 2316 ldr.w r0, [r6, #0x21c] {}
2312 2313 2316 2317 2318 cmp r0, r2 {load-use}
2313 2316 2317 2318 2319 beq.w #0x4009382 {bmispred}
2318 2319 2320 2321 2323 ldr r1, [pc, #0xc4] {}
2319 2320 2321 2323 2325 ldr.w r3, [r6, #0x224] {}
2320 2321 2323 2325 2326 add r1, pc {}
2321 2323 2325 2326 2328 ldr.w r2, [r1, #0x50c] {}
2323 2325 2326 2328 2330 str r3, [r7, #0x54] {}
2325 2326 2328 2330 2331 adds r2, #1 {}
2326 2328 2330 2331 2333 str.w r2, [r1, #0x50c] {}
2328 2330 2331 2333 2335 ldr.w r2, [r6, #0x220] {}
2330 2331 2333 2335 2336 b #0x4008cc4 {bmispred}
2334 2335 2336 2337 2338 cmp r2, #0 {}
2335 2336 2337 2338 2339 beq.w #0x4008e00 {}
2336 2337 2338 2339 2341 ldr r0, [r2] {}
2337 2338 2339 2341 2343 ldr r1, [r3, #4] {}
2338 2339 2343 2344 2345 adds r1, r0, r1 {load-use}
2339 2343 2344 2345 2347 str r1, [r7, #0x3c] {}
2343 2344 2345 2347 2349 ldrb r1, [r3, #0xc] {}
2344 2345 2349 2350 2351 and r1, r1, #0xf {load-use}
2345 2349 2350 2351 2352 cmp r1, #0xa {}
2349 2350 2351 2352 2353 beq.w #0x4009094 {}
2350 2351 2352 2353 2354 cmp r5, #0x12 {}
2351 2352 2353 2354 2355 beq.w #0x400907a {}
2352 2353 2354 2355 2356 bhi #0x4008d1a {}
2353 2354 2355 2356 2357 cmp r5, #2 {}
2354 2355 2356 2357 2358 beq.w #0x4009000 {}
2355 2356 2357 2358 2360 ldr r3, [r7, #0x14] {}
2356 2357 2360 2361 2362 cmp r6, r3 {load-use}
2357 2360 2361 2362 2363 beq.w #0x400988e {}
2360 2361 2362 2363 2365 ldr r3, [r7, #0x48] {}
2361 2362 2363 2365 2366 add.w r10, r10, #8 {}
2362 2363 2365 2366 2368 ldr r2, [r7, #0x3c] {}
2363 2365 2366 2368 2370 ldr r3, [r3] {}
2365 2366 2368 2370 2371 add r3, r2 {}
2366 2368 2370 2371 2373 str.w r3, [r9, r8] {}
2368 2370 2371 2373 2375 ldr r3, [r7, #0x2c] {}
2370 2371 2375 2376 2377 cmp r3, r10 {load-use}
2371 2375 2376 2377 2378 bhi.w #0x4008c0a {}
2375 2376 2377 2378 2380 ldr.w r5, [r10, #4] {}
2376 2377 2378 2380 2382 ldr.w r8, [r10] {}
2377 2378 2380 2382 2384 ldr.w r1, [r6, #0x170] {}
2378 2380 2382 2384 2385 add.w r2, r9, r8 {}
2380 2382 2384 2385 2387 str r2, [r7, #0x48] {}
2382 2384 2385 2387 2389 ldr r2, [r7, #0x34] {}
2384 2385 2387 2389 2390 lsrs r3, r5, #8 {}
2385 2387 2389 2390 2391 uxtb r5, r5 {}
2387 2389 2390 2391 2392 lsl.w r11, r3, #4 {}
2389 2390 2391 2392 2393 cmp r5, #0x17 {}
2390 2391 2392 2393 2395 ldrh.w r3, [r2, r3, lsl #1] {}
2391 2392 2393 2395 2397 ldr r2, [r7, #0x4c] {}
2392 2393 2397 2398 2399 add.w r4, r2, r11 {load-use}
2393 2397 2398 2399 2401 str r4, [r7, #0x54] {}
2397 2398 2399 2401 2402 beq.w #0x4008e66 {}
2398 2399 2401 2402 2403 cmp r5, #0 {}
2399 2401 2402 2403 2404 beq #0x4008d06 {}
2401 2402 2403 2404 2406 ldrb r2, [r4, #0xc] {}
2402 2403 2406 2407 2408 lsrs r2, r2, #4 {load-use}
2403 2406 2407 2408 2409 beq #0x4008d14 {}
2406 2407 2408 2409 2411 ldr.w r2, [r6, #0x218] {}
2407 2408 2411 2412 2413 cmp r4, r2 {load-use}
2408 2411 2412 2413 2414 beq.w #0x400919c {}
2411 2412 2413 2414 2415 cmp r5, #0x11 {}
2412 2413 2414 2415 2416 it ne {}
2413 2414 2415 2416 2417 cmpne r5, #0x16 {}
2414 2415 2416 2417 2418 itet eq {}
2415 2416 2417 2418 2419 moveq.w lr, #1 {}
2416 2417 2418 2419 2420 movne.w lr, #0 {}
2417 2418 2419 2420 2421 moveq r2, lr {}
2418 2419 2420 2421 2422 bne.w #0x4009332 {}
2419 2420 2421 2422 2423 sub.w r2, r5, #0x12 {}
2420 2421 2422 2423 2424 cmp r5, #0xd {}
2421 2422 2423 2424 2425 it ne {}
2422 2423 2424 2425 2426 cmpne r2, #1 {}
2423 2424 2425 2426 2427 ite ls {}
2424 2425 2426 2427 2428 movls r2, #1 {}
2425 2426 2427 2428 2429 movhi r2, #0 {}
2426 2427 2428 2429 2430 b #0x40091b2 {}
2427 2428 2429 2430 2431 cmp r5, #0x14 {}
2428 2429 2430 2431 2432 mov r12, r2 {}
2429 2430 2431 2432 2433 beq.w #0x4009958 {}
2430 2431 2432 2433 2434 cmp r5, #0x15 {}
2431 2432 2433 2434 2435 beq.w #0x4009372 {bmispred}
2434 2435 2436 2437 2438 movs r2, #4 {}
2435 2436 2437 2438 2440 ldr.w r0, [r6, #0x21c] {}
2436 2437 2438 2440 2441 orr.w r2, r12, r2 {}
2437 2438 2440 2441 2442 cmp r2, r0 {}
2438 2440 2441 2442 2443 bne.w #0x4008c58 {bmispred}
2442 2443 2444 2445 2446 sub.w r2, r5, #0x12 {}
2443 2444 2445 2446 2447 cmp r5, #0xd {}
2444 2445 2446 2447 2448 it ne {}
2445 2446 2447 2448 2449 cmpne r2, #1 {}
2446 2447 2448 2449 2450 ite ls {}
2447 2448 2449 2450 2451 movls r2, #1 {}
2448 2449 2450 2451 2452 movhi r2, #0 {}
2449 2450 2451 2452 2453 cmp r5, #0x14 {}
2450 2451 2452 2453 2454 beq.w #0x4008e34 {}
2451 2452 2453 2454 2455 cmp r5, #0x15 {}
2452 2453 2454 2455 2456 ite ne {}
2453 2454 2455 2456 2457 movne r0, #0 {}
2454 2455 2456 2457 2458 moveq r0, #4 {}
2455 2456 2457 2458 2459 ubfx r3, r3, #0, #0xf {}
2456 2457 2458 2459 2460 orrs r2, r0 {}
2457 2458 2459 2460 2462 str.w r4, [r6, #0x218] {}
2458 2459 2460 2462 2463 adds.w r3, r1, r3, lsl #4 {}
2459 2460 2462 2463 2465 str.w r2, [r6, #0x21c] {}
2460 2462 2463 2465 2466 beq #0x4008c92 {}
2462 2463 2465 2466 2468 ldr r1, [r3, #4] {}
2463 2465 2468 2469 2470 cmp r1, #0 {load-use}
2465 2468 2469 2470 2471 it eq {}
2468 2469 2470 2471 2472 moveq r3, #0 {}
2469 2470 2471 2472 2474 ldr r1, [r7, #0x4c] {}
2470 2471 2472 2474 2475 mov.w lr, #1 {}
2471 2472 2474 2475 2477 ldr.w r0, [r1, r11] {}
2472 2474 2475 2477 2478 movs r1, #0 {}
2474 2475 2477 2478 2480 str r2, [sp, #4] {}
2475 2477 2478 2480 2482 ldr r2, [r7, #0x30] {}
2477 2478 2480 2482 2484 str r3, [sp] {}
2478 2480 2482 2484 2485 add r0, r2 {}
2480 2482 2484 2485 2487 str r1, [sp, #0xc] {}
2482 2484 2485 2487 2489 ldr r3, [r7, #0x44] {}
2484 2485 2487 2489 2490 add.w r2, r7, #0x54 {}
2485 2487 2489 2490 2492 str.w lr, [sp, #8] {}
2487 2489 2490 2492 2493 mov r1, r6 {}
2489 2490 2492 2493 2494 bl #0x40075a0 {bmispred}
2493 2494 2495 2496 2498 push.w {r4, r5, r6, r7, r8, r9, r10, r11, lr} {}
2494 2495 2496 2498 2499 mov r6, r1 {}
2495 2496 2498 2499 2500 sub sp, #0x7c {}
2496 2498 2499 2500 2502 ldrb r1, [r0] {}
2498 2499 2500 2502 2503 add r7, sp, #0x20 {}
2499 2500 2502 2503 2504 mov r9, r0 {}
2500 2502 2503 2504 2505 mov r10, r2 {}
2502 2503 2504 2505 2507 str r3, [r7, #0x10] {}
2503 2504 2505 2507 2509 ldr.w r11, [r7, #0x80] {}
2504 2505 2507 2509 2511 ldr.w r8, [r7, #0x8c] {}
2505 2507 2509 2511 2512 cmp r1, #0 {}
2507 2509 2511 2512 2513 beq.w #0x4007918 {}
2509 2511 2512 2513 2514 mov r3, r0 {}
2511 2512 2513 2514 2515 movw r4, #0x1505 {}
2512 2513 2514 2515 2516 add.w r4, r4, r4, lsl #5 {}
2513 2514 2515 2516 2517 add r4, r1 {}
2514 2515 2516 2517 2519 ldrb r1, [r3, #1]! {}
2515 2516 2519 2520 2521 cmp r1, #0 {load-use}
2516 2519 2520 2521 2522 bne #0x40075c6 {}
2519 2520 2521 2522 2523 add.w r4, r4, r4, lsl #5 {}
2520 2521 2522 2523 2524 add r4, r1 {}
2521 2522 2523 2524 2526 ldrb r1, [r3, #1]! {}
2522 2523 2526 2527 2528 cmp r1, #0 {load-use}
2523 2526 2527 2528 2529 bne #0x40075c6 {}
2526 2527 2528 2529 2530 add.w r4, r4, r4, lsl #5 {}
2527 2528 2529 2530 2531 add r4, r1 {}
2528 2529 2530 2531 2533 ldrb r1, [r3, #1]! {}
2529 2530 2533 2534 2535 cmp r1, #0 {load-use}
2530 2533 2534 2535 2536 bne #0x40075c6 {}
2533 2534 2535 2536 2537 add.w r4, r4, r4, lsl #5 {}
2534 2535 2536 2537 2538 add r4, r1 {}
2535 2536 2537 2538 2540 ldrb r1, [r3, #1]! {}
2536 2537 2540 2541 2542 cmp r1, #0 {load-use}
2537 2540 2541 2542 2543 bne #0x40075c6 {}
2540 2541 2542 2543 2544 add.w r4, r4, r4, lsl #5 {}
2541 2542 2543 2544 2545 add r4, r1 {}
2542 2543 2544 2545 2547 ldrb r1, [r3, #1]! {}
2543 2544 2547 2548 2549 cmp r1, #0 {load-use}
2544 2547 2548 2549 2550 bne #0x40075c6 {}
2547 2548 2549 2550 2551 add.w r4, r4, r4, lsl #5 {}
2548 2549 2550 2551 2552 add r4, r1 {}
2549 2550 2551 2552 2554 ldrb r1, [r3, #1]! {}
2550 2551 2554 2555 2556 cmp r1, #0 {load-use}
2551 2554 2555 2556 2557 bne #0x40075c6 {}
2554 2555 2556 2557 2558 add.w r4, r4, r4, lsl #5 {}
2555 2556 2557 2558 2559 add r4, r1 {}
2556 2557 2558 2559 2561 ldrb r1, [r3, #1]! {}
2557 2558 2561 2562 2563 cmp r1, #0 {load-use}
2558 2561 2562 2563 2564 bne #0x40075c6 {}
2561 2562 2563 2564 2565 add.w r4, r4, r4, lsl #5 {}
2562 2563 2564 2565 2566 add r4, r1 {}
2563 2564 2565 2566 2568 ldrb r1, [r3, #1]! {}
2564 2565 2568 2569 2570 cmp r1, #0 {load-use}
2565 2568 2569 2570 2571 bne #0x40075c6 {}
2568 2569 2570 2571 2572 add.w r4, r4, r4, lsl #5 {}
2569 2570 2571 2572 2573 add r4, r1 {}
2570 2571 2572 2573 2575 ldrb r1, [r3, #1]! {}
2571 2572 2575 2576 2577 cmp r1, #0 {load-use}
2572 2575 2576 2577 2578 bne #0x40075c6 {}
2575 2576 2577 2578 2579 add.w r4, r4, r4, lsl #5 {}
2576 2577 2578 2579 2580 add r4, r1 {}
2577 2578 2579 2580 2582 ldrb r1, [r3, #1]! {}
2578 2579 2582 2583 2584 cmp r1, #0 {load-use}
2579 2582 2583 2584 2585 bne #0x40075c6 {}
2582 2583 2584 2585 2586 add.w r4, r4, r4, lsl #5 {}
2583 2584 2585 2586 2587 add r4, r1 {}
2584 2585 2586 2587 2589 ldrb r1, [r3, #1]! {}
2585 2586 2589 2590 2591 cmp r1, #0 {load-use}
2586 2589 2590 2591 2592 bne #0x40075c6 {}
2589 2590 2591 2592 2593 add.w r4, r4, r4, lsl #5 {}
2590 2591 2592 2593 2594 add r4, r1 {}
2591 2592 2593 2594 2596 ldrb r1, [r3, #1]! {}
2592 2593 2596 2597 2598 cmp r1, #0 {load-use}
2593 2596 2597 2598 2599 bne #0x40075c6 {}
2596 2597 2598 2599 2600 add.w r4, r4, r4, lsl #5 {}
2597 2598 2599 2600 2601 add r4, r1 {}
2598 2599 2600 2601 2603 ldrb r1, [r3, #1]! {}
2599 2600 2603 2604 2605 cmp r1, #0 {load-use}
2600 2603 2604 2605 2606 bne #0x40075c6 {}
2603 2604 2605 2606 2607 add.w r4, r4, r4, lsl #5 {}
2604 2605 2606 2607 2608 add r4, r1 {}
2605 2606 2607 2608 2610 ldrb r1, [r3, #1]! {}
2606 2607 2610 2611 2612 cmp r1, #0 {load-use}
2607 2610 2611 2612 2613 bne #0x40075c6 {}
2610 2611 2612 2613 2614 add.w r4, r4, r4, lsl #5 {}
2611 2612 2613 2614 2615 add r4, r1 {}
2612 2613 2614 2615 2617 ldrb r1, [r3, #1]! {}
2613 2614 2617 2618 2619 cmp r1, #0 {load-use}
2614 2617 2618 2619 2620 bne #0x40075c6 {}
2617 2618 2619 2620 2621 add.w r4, r4, r4, lsl #5 {}
2618 2619 2620 2621 2622 add r4, r1 {}
2619 2620 2621 2622 2624 ldrb r1, [r3, #1]! {}
2620 2621 2624 2625 2626 cmp r1, #0 {load-use}
2621 2624 2625 2626 2627 bne #0x40075c6 {}
2624 2625 2626 2627 2628 add.w r4, r4, r4, lsl #5 {}
2625 2626 2627 2628 2629 add r4, r1 {}
2626 2627 2628 2629 2631 ldrb r1, [r3, #1]! {}
2627 2628 2631 2632 2633 cmp r1, #0 {load-use}
2628 2631 2632 2633 2634 bne #0x40075c6 {}
2631 2632 2633 2634 2635 add.w r4, r4, r4, lsl #5 {}
2632 2633 2634 2635 2636 add r4, r1 {}
2633 2634 2635 2636 2638 ldrb r1, [r3, #1]! {}
2634 2635 2638 2639 2640 cmp r1, #0 {load-use}
2635 2638 2639 2640 2641 bne #0x40075c6 {}
2638 2639 2640 2641 2642 add.w r4, r4, r4, lsl #5 {}
2639 2640 2641 2642 2643 add r4, r1 {}
2640 2641 2642 2643 2645 ldrb r1, [r3, #1]! {}
2641 2642 2645 2646 2647 cmp r1, #0 {load-use}
2642 2645 2646 2647 2648 bne #0x40075c6 {}
2645 2646 2647 2648 2649 add.w r4, r4, r4, lsl #5 {}
2646 2647 2648 2649 2650 add r4, r1 {}
2647 2648 2649 2650 2652 ldrb r1, [r3, #1]! {}
2648 2649 2652 2653 2654 cmp r1, #0 {load-use}
2649 2652 2653 2654 2655 bne #0x40075c6 {}
2652 2653 2654 2655 2656 add.w r4, r4, r4, lsl #5 {}
2653 2654 2655 2656 2657 add r4, r1 {}
2654 2655 2656 2657 2659 ldrb r1, [r3, #1]! {}
2655 2656 2659 2660 2661 cmp r1, #0 {load-use}
2656 2659 2660 2661 2662 bne #0x40075c6 {}
2659 2660 2661 2662 2663 add.w r4, r4, r4, lsl #5 {}
2660 2661 2662 2663 2664 add r4, r1 {}
2661 2662 2663 2664 2666 ldrb r1, [r3, #1]! {}
2662 2663 2666 2667 2668 cmp r1, #0 {load-use}
2663 2666 2667 2668 2669 bne #0x40075c6 {}
2666 2667 2668 2669 2670 add.w r4, r4, r4, lsl #5 {}
2667 2668 2669 2670 2671 add r4, r1 {}
2668 2669 2670 2671 2673 ldrb r1, [r3, #1]! {}
2669 2670 2673 2674 2675 cmp r1, #0 {load-use}
2670 2673 2674 2675 2676 bne #0x40075c6 {}
2673 2674 2675 2676 2677 add.w r4, r4, r4, lsl #5 {}
2674 2675 2676 2677 2678 add r4, r1 {}
2675 2676 2677 2678 2680 ldrb r1, [r3, #1]! {}
2676 2677 2680 2681 2682 cmp r1, #0 {load-use}
2677 2680 2681 2682 2683 bne #0x40075c6 {}
2680 2681 2682 2683 2684 add.w r4, r4, r4, lsl #5 {}
2681 2682 2683 2684 2685 add r4, r1 {}
2682 2683 2684 2685 2687 ldrb r1, [r3, #1]! {}
2683 2684 2687 2688 2689 cmp r1, #0 {load-use}
2684 2687 2688 2689 2690 bne #0x40075c6 {}
2687 2688 2689 2690 2691 add.w r4, r4, r4, lsl #5 {}
2688 2689 2690 2691 2692 add r4, r1 {}
2689 2690 2691 2692 2694 ldrb r1, [r3, #1]! {}
2690 2691 2694 2695 2696 cmp r1, #0 {load-use}
2691 2694 2695 2696 2697 bne #0x40075c6 {}
2694 2695 2696 2697 2698 add.w r4, r4, r4, lsl #5 {}
2695 2696 2697 2698 2699 add r4, r1 {}
2696 2697 2698 2699 2701 ldrb r1, [r3, #1]! {}
2697 2698 2701 2702 2703 cmp r1, #0 {load-use}
2698 2701 2702 2703 2704 bne #0x40075c6 {}
2701 2702 2703 2704 2705 add.w r4, r4, r4, lsl #5 {}
2702 2703 2704 2705 2706 add r4, r1 {}
2703 2704 2705 2706 2708 ldrb r1, [r3, #1]! {}
2704 2705 2708 2709 2710 cmp r1, #0 {load-use}
2705 2708 2709 2710 2711 bne #0x40075c6 {}
2708 2709 2710 2711 2712 add.w r4, r4, r4, lsl #5 {}
2709 2710 2711 2712 2713 add r4, r1 {}
2710 2711 2712 2713 2715 ldrb r1, [r3, #1]! {}
2711 2712 2715 2716 2717 cmp r1, #0 {load-use}
2712 2715 2716 2717 2718 bne #0x40075c6 {}
2715 2716 2717 2718 2719 add.w r4, r4, r4, lsl #5 {}
2716 2717 2718 2719 2720 add r4, r1 {}
2717 2718 2719 2720 2722 ldrb r1, [r3, #1]! {}
2718 2719 2722 2723 2724 cmp r1, #0 {load-use}
2719 2722 2723 2724 2725 bne #0x40075c6 {}
2722 2723 2724 2725 2726 add.w r4, r4, r4, lsl #5 {}
2723 2724 2725 2726 2727 add r4, r1 {}
2724 2725 2726 2727 2729 ldrb r1, [r3, #1]! {}
2725 2726 2729 2730 2731 cmp r1, #0 {load-use}
2726 2729 2730 2731 2732 bne #0x40075c6 {}
2729 2730 2731 2732 2733 add.w r4, r4, r4, lsl #5 {}
2730 2731 2732 2733 2734 add r4, r1 {}
2731 2732 2733 2734 2736 ldrb r1, [r3, #1]! {}
2732 2733 2736 2737 2738 cmp r1, #0 {load-use}
2733 2736 2737 2738 2739 bne #0x40075c6 {}
2736 2737 2738 2739 2740 add.w r4, r4, r4, lsl #5 {}
2737 2738 2739 2740 2741 add r4, r1 {}
2738 2739 2740 2741 2743 ldrb r1, [r3, #1]! {}
2739 2740 2743 2744 2745 cmp r1, #0 {load-use}
2740 2743 2744 2745 2746 bne #0x40075c6 {}
2743 2744 2745 2746 2747 add.w r4, r4, r4, lsl #5 {}
2744 2745 2746 2747 2748 add r4, r1 {}
2745 2746 2747 2748 2750 ldrb r1, [r3, #1]! {}
2746 2747 2750 2751 2752 cmp r1, #0 {load-use}
2747 2750 2751 2752 2753 bne #0x40075c6 {}
2750 2751 2752 2753 2754 add.w r4, r4, r4, lsl #5 {}
2751 2752 2753 2754 2755 add r4, r1 {}
2752 2753 2754 2755 2757 ldrb r1, [r3, #1]! {}
2753 2754 2757 2758 2759 cmp r1, #0 {load-use}
2754 2757 2758 2759 2760 bne #0x40075c6 {}
2757 2758 2759 2760 2761 add.w r4, r4, r4, lsl #5 {}
2758 2759 2760 2761 2762 add r4, r1 {}
2759 2760 2761 2762 2764 ldrb r1, [r3, #1]! {}
2760 2761 2764 2765 2766 cmp r1, #0 {load-use}
2761 2764 2765 2766 2767 bne #0x40075c6 {}
2764 2765 2766 2767 2768 add.w r4, r4, r4, lsl #5 {}
2765 2766 2767 2768 2769 add r4, r1 {}
2766 2767 2768 2769 2771 ldrb r1, [r3, #1]! {}
2767 2768 2771 2772 2773 cmp r1, #0 {load-use}
2768 2771 2772 2773 2774 bne #0x40075c6 {}
2771 2772 2773 2774 2775 add.w r4, r4, r4, lsl #5 {}
2772 2773 2774 2775 2776 add r4, r1 {}
2773 2774 2775 2776 2778 ldrb r1, [r3, #1]! {}
2774 2775 2778 2779 2780 cmp r1, #0 {load-use}
2775 2778 2779 2780 2781 bne #0x40075c6 {}
2778 2779 2780 2781 2782 add.w r4, r4, r4, lsl #5 {}
2779 2780 2781 2782 2783 add r4, r1 {}
2780 2781 2782 2783 2785 ldrb r1, [r3, #1]! {}
2781 2782 2785 2786 2787 cmp r1, #0 {load-use}
2782 2785 2786 2787 2788 bne #0x40075c6 {}
2785 2786 2787 2788 2789 add.w r4, r4, r4, lsl #5 {}
2786 2787 2788 2789 2790 add r4, r1 {}
2787 2788 2789 2790 2792 ldrb r1, [r3, #1]! {}
2788 2789 2792 2793 2794 cmp r1, #0 {load-use}
2789 2792 2793 2794 2795 bne #0x40075c6 {}
2792 2793 2794 2795 2796 add.w r4, r4, r4, lsl #5 {}
2793 2794 2795 2796 2797 add r4, r1 {}
2794 2795 2796 2797 2799 ldrb r1, [r3, #1]! {}
2795 2796 2799 2800 2801 cmp r1, #0 {load-use}
2796 2799 2800 2801 2802 bne #0x40075c6 {}
2799 2800 2801 2802 2803 add.w r4, r4, r4, lsl #5 {}
2800 2801 2802 2803 2804 add r4, r1 {}
2801 2802 2803 2804 2806 ldrb r1, [r3, #1]! {}
2802 2803 2806 2807 2808 cmp r1, #0 {load-use}
2803 2806 2807 2808 2809 bne #0x40075c6 {bmispred}
2808 2809 2810 2811 2813 ldr.w r2, [pc, #0xb48] {}
2809 2810 2811 2813 2814 mov.w r3, #-1 {}
2810 2811 2813 2814 2816 str r3, [r7, #0x20] {}
2811 2813 2814 2816 2817 movs r1, #0 {}
2813 2814 2816 2817 2818 add r2, pc {}
2814 2816 2817 2818 2820 str r1, [r7, #0x28] {}
2816 2817 2818 2820 2822 str r1, [r7, #0x2c] {}
2817 2818 2820 2822 2824 ldr.w r3, [r2, #0x508] {}
2818 2820 2822 2824 2825 adds r3, #1 {}
2820 2822 2824 2825 2827 str.w r3, [r2, #0x508] {}
2822 2824 2825 2827 2828 cmp.w r11, #0 {}
2824 2825 2827 2828 2829 beq #0x4007602 {}
2825 2827 2828 2829 2831 ldr.w r3, [r7, #0x88] {}
2827 2828 2831 2832 2833 bics r3, r3, #5 {load-use}
2828 2831 2832 2833 2834 bne.w #0x4007ee2 {}
2831 2832 2833 2834 2836 ldr r3, [r7, #0x10] {}
2832 2833 2836 2837 2839 ldr.w lr, [r3] {load-use}
2833 2836 2837 2839 2840 cmp.w r8, #0 {}
2836 2837 2839 2840 2841 bne.w #0x40078dc {}
2837 2839 2840 2841 2842 cmp.w lr, #0 {}
2839 2840 2841 2842 2843 beq.w #0x40078f8 {}
2840 2841 2842 2843 2845 str.w r8, [r7, #0xc] {}
2841 2842 2843 2845 2847 ldr r5, [r7, #0x10] {}
2842 2843 2845 2847 2848 add.w r3, r7, #0x20 {}
2843 2845 2847 2848 2850 str.w r8, [r7, #0x8c] {}
2845 2847 2848 2850 2851 mov r8, r4 {}
2847 2848 2850 2851 2853 str r3, [r7, #0x18] {}
2848 2850 2851 2853 2854 add.w r3, r7, #0x28 {}
2850 2851 2853 2854 2856 ldr r0, [r7, #0xc] {}
2851 2853 2854 2856 2858 str r3, [r7, #0x14] {}
2853 2854 2856 2858 2860 str r5, [r7, #0x1c] {}
2854 2856 2858 2860 2862 ldr.w r4, [r7, #0x8c] {}
2856 2858 2860 2862 2863 b #0x400765e {bmispred}
2861 2862 2863 2864 2866 ldr.w r5, [r7, #0x84] {}
2862 2863 2864 2866 2867 mov r1, r8 {}
2863 2864 2866 2867 2869 ldr.w r3, [r10] {}
2864 2866 2867 2869 2871 ldr r2, [r7, #0x18] {}
2866 2867 2869 2871 2873 str r5, [sp, #0x18] {}
2867 2869 2871 2873 2875 ldr.w r5, [r7, #0x88] {}
2869 2871 2873 2875 2877 str r0, [sp, #8] {}
2871 2873 2875 2877 2878 mov r0, r9 {}
2873 2875 2877 2878 2880 str r6, [sp, #0x1c] {}
2875 2877 2878 2880 2882 str r5, [sp, #0x10] {}
2877 2878 2880 2882 2884 ldr r5, [r7, #0x14] {}
2878 2880 2882 2884 2886 str r4, [sp, #0x14] {}
2880 2882 2884 2886 2888 str.w r11, [sp, #0xc] {}
2882 2884 2886 2888 2890 str.w lr, [sp, #4] {}
2884 2886 2888 2890 2892 str r5, [sp] {}
2886 2888 2890 2892 2893 bl #0x4006da8 {bmispred}
2891 2892 2893 2894 2896 push.w {r4, r5, r6, r7, r8, r9, r10, r11, lr} {}
2892 2893 2894 2896 2897 sub sp, #0x6c {}
2893 2894 2896 2897 2899 ldr r4, [sp, #0x94] {}
2894 2896 2897 2899 2901 str r3, [sp, #0x3c] {}
2896 2897 2899 2901 2903 str r2, [sp, #0x44] {}
2897 2899 2901 2903 2905 ldr r3, [r4, #4] {}
2899 2901 2903 2905 2907 ldr.w r2, [pc, #0x79c] {}
2901 2903 2905 2907 2909 str r0, [sp, #0x34] {}
2903 2905 2907 2909 2910 add r2, pc {}
2905 2907 2909 2910 2911 mov r10, r3 {}
2907 2909 2910 2911 2913 str r2, [sp, #0x48] {}
2909 2910 2911 2913 2915 ldr r5, [sp, #0x98] {}
2910 2911 2913 2915 2917 ldr.w r9, [sp, #0xa4] {}
2911 2913 2915 2917 2919 ldr.w r8, [sp, #0xa8] {}
2913 2915 2917 2919 2921 ldr r6, [r4] {}
2915 2917 2919 2921 2922 lsrs r3, r1, #5 {}
2917 2919 2921 2922 2924 ldr.w r2, [pc, #0x784] {}
2919 2921 2922 2924 2925 mov r7, r8 {}
2921 2922 2924 2925 2927 str r3, [sp, #0x30] {}
2922 2924 2925 2927 2928 add.w r6, r6, r5, lsl #2 {}
2924 2925 2927 2928 2930 ldr.w r3, [pc, #0x77c] {}
2925 2927 2928 2930 2931 mov r11, r10 {}
2927 2928 2930 2931 2932 add r2, pc {}
2928 2930 2931 2932 2934 str r1, [sp, #0x28] {}
2930 2931 2932 2934 2935 add r3, pc {}
2931 2932 2934 2935 2937 str r2, [sp, #0x40] {}
2932 2934 2935 2937 2939 str r3, [sp, #0x20] {}
2934 2935 2937 2939 2940 movw r3, #0xaaab {}
2935 2937 2939 2940 2941 movt r3, #0xaaaa {}
2937 2939 2940 2941 2943 str r3, [sp, #0x4c] {}
2939 2940 2941 2943 2945 ldr r3, [r6], #4 {}
2940 2941 2945 2946 2948 ldr r4, [r3, #0x14] {load-use}
2941 2945 2948 2949 2950 cmp r4, r9 {load-use}
2945 2948 2949 2950 2951 beq #0x4006e98 {}
2948 2949 2950 2951 2952 ands r10, r7, #2 {}
2949 2950 2951 2952 2953 beq #0x4006e0e {bmispred}
2952 2953 2954 2955 2957 ldrb.w r3, [r4, #0x195] {}
2953 2954 2957 2958 2959 lsls r2, r3, #0x1a {load-use}
2954 2957 2958 2959 2960 bmi #0x4006e98 {}
2957 2958 2959 2960 2962 ldr r3, [sp, #0x20] {}
2958 2959 2962 2963 2965 ldr r3, [r3] {load-use}
2959 2962 2965 2966 2967 lsls r3, r3, #0x1c {load-use}
2962 2965 2966 2967 2968 bmi #0x4006ea6 {}
2965 2966 2967 2968 2970 ldr.w r1, [r4, #0x178] {}
2966 2967 2970 2971 2972 cmp r1, #0 {load-use}
2967 2970 2971 2972 2973 beq #0x4006e98 {}
2970 2971 2972 2973 2975 ldr r2, [r4, #0x38] {}
2971 2972 2973 2975 2976 movs r0, #0 {}
2972 2973 2975 2976 2978 ldr r3, [r4, #0x34] {}
2973 2975 2976 2978 2980 ldr.w lr, [r4, #0x184] {}
2975 2976 2978 2980 2982 ldr r2, [r2, #4] {}
2976 2978 2980 2982 2984 ldr r3, [r3, #4] {}
2978 2980 2982 2984 2986 str r0, [sp, #0x60] {}
2980 2982 2984 2986 2988 str r2, [sp, #0x38] {}
2982 2984 2986 2988 2990 str r3, [sp, #0x24] {}
2984 2986 2988 2990 2992 str r0, [sp, #0x64] {}
2986 2988 2990 2992 2993 cmp.w lr, #0 {}
2988 2990 2992 2993 2994 beq #0x4006ed2 {}
2990 2992 2993 2994 2996 ldr.w r3, [r4, #0x180] {}
2992 2993 2994 2996 2998 ldr.w r0, [r4, #0x17c] {}
2993 2994 2996 2998 3000 ldr r2, [sp, #0x28] {}
2994 2996 2998 3000 3002 str r3, [sp, #0x2c] {}
2996 2998 3000 3002 3004 ldr r3, [sp, #0x30] {}
2998 3000 3002 3004 3005 and r12, r2, #0x1f {}
3000 3002 3004 3005 3006 ands r0, r3 {}
3002 3004 3005 3006 3008 ldr r3, [sp, #0x2c] {}
3004 3005 3006 3008 3010 ldr.w r0, [lr, r0, lsl #2] {}
3005 3006 3008 3010 3011 lsr.w r3, r2, r3 {}
3006 3008 3010 3011 3012 and r3, r3, #0x1f {}
3008 3010 3011 3012 3013 mov r2, r12 {}
3010 3011 3012 3013 3014 lsr.w r3, r0, r3 {}
3011 3012 3013 3014 3015 lsrs r0, r2 {}
3012 3013 3014 3015 3016 ands r3, r0 {}
3013 3014 3015 3016 3017 lsls r0, r3, #0x1f {}
3014 3015 3016 3017 3018 bmi.w #0x4007180 {}
3015 3016 3017 3018 3019 mov.w r8, #1 {}
3016 3017 3018 3019 3021 ldr r3, [sp, #0x9c] {}
3017 3018 3021 3022 3023 cmp r3, #0 {load-use}
3018 3021 3022 3023 3024 ite eq {}
3021 3022 3023 3024 3025 moveq r3, #0 {}
3022 3023 3024 3025 3026 andne r3, r8, #1 {}
3023 3024 3025 3026 3027 cbz r3, #0x4006e98 {}
3024 3025 3026 3027 3029 ldr r3, [sp, #0x9c] {}
3025 3026 3029 3030 3032 ldr r0, [r3, #0xc] {load-use}
3026 3029 3032 3033 3034 cbz r0, #0x4006e98 {load-use}
3029 3032 3033 3034 3035 adds r5, #1 {}
3032 3033 3034 3035 3036 cmp r11, r5 {}
3033 3034 3035 3036 3037 bhi #0x4006df6 {bmispred}
3036 3037 3038 3039 3041 ldr r3, [r6], #4 {}
3037 3038 3041 3042 3044 ldr r4, [r3, #0x14] {load-use}
3038 3041 3044 3045 3046 cmp r4, r9 {load-use}
3041 3044 3045 3046 3047 beq #0x4006e98 {}
3044 3045 3046 3047 3048 ands r10, r7, #2 {}
3045 3046 3047 3048 3049 beq #0x4006e0e {bmispred}
3048 3049 3050 3051 3053 ldrb.w r3, [r4, #0x195] {}
3049 3050 3053 3054 3055 lsls r2, r3, #0x1a {load-use}
3050 3053 3054 3055 3056 bmi #0x4006e98 {}
3053 3054 3055 3056 3058 ldr r3, [sp, #0x20] {}
3054 3055 3058 3059 3061 ldr r3, [r3] {load-use}
3055 3058 3061 3062 3063 lsls r3, r3, #0x1c {load-use}
3058 3061 3062 3063 3064 bmi #0x4006ea6 {}
3061 3062 3063 3064 3066 ldr.w r1, [r4, #0x178] {}
3062 3063 3066 3067 3068 cmp r1, #0 {load-use}
3063 3066 3067 3068 3069 beq #0x4006e98 {}
3066 3067 3068 3069 3071 ldr r2, [r4, #0x38] {}
3067 3068 3069 3071 3072 movs r0, #0 {}
3068 3069 3071 3072 3074 ldr r3, [r4, #0x34] {}
3069 3071 3072 3074 3076 ldr.w lr, [r4, #0x184] {}
3071 3072 3074 3076 3078 ldr r2, [r2, #4] {}
3072 3074 3076 3078 3080 ldr r3, [r3, #4] {}
3074 3076 3078 3080 3082 str r0, [sp, #0x60] {}
3076 3078 3080 3082 3084 str r2, [sp, #0x38] {}
3078 3080 3082 3084 3086 str r3, [sp, #0x24] {}
3080 3082 3084 3086 3088 str r0, [sp, #0x64] {}
3082 3084 3086 3088 3089 cmp.w lr, #0 {}
3084 3086 3088 3089 3090 beq #0x4006ed2 {}
3086 3088 3089 3090 3092 ldr.w r3, [r4, #0x180] {}
3088 3089 3090 3092 3094 ldr.w r0, [r4, #0x17c] {}
3089 3090 3092 3094 3096 ldr r2, [sp, #0x28] {}
3090 3092 3094 3096 3098 str r3, [sp, #0x2c] {}
3092 3094 3096 3098 3100 ldr r3, [sp, #0x30] {}
3094 3096 3098 3100 3101 and r12, r2, #0x1f {}
3096 3098 3100 3101 3102 ands r0, r3 {}
3098 3100 3101 3102 3104 ldr r3, [sp, #0x2c] {}
3100 3101 3102 3104 3106 ldr.w r0, [lr, r0, lsl #2] {}
3101 3102 3104 3106 3107 lsr.w r3, r2, r3 {}
3102 3104 3106 3107 3108 and r3, r3, #0x1f {}
3104 3106 3107 3108 3109 mov r2, r12 {}
3106 3107 3108 3109 3110 lsr.w r3, r0, r3 {}
3107 3108 3109 3110 3111 lsrs r0, r2 {}
3108 3109 3110 3111 3112 ands r3, r0 {}
3109 3110 3111 3112 3113 lsls r0, r3, #0x1f {}
3110 3111 3112 3113 3114 bmi.w #0x4007180 {}
3111 3112 3113 3114 3115 mov.w r8, #1 {}
3112 3113 3114 3115 3117 ldr r3, [sp, #0x9c] {}
3113 3114 3117 3118 3119 cmp r3, #0 {load-use}
3114 3117 3118 3119 3120 ite eq {}
3117 3118 3119 3120 3121 moveq r3, #0 {}
3118 3119 3120 3121 3122 andne r3, r8, #1 {}
3119 3120 3121 3122 3123 cbz r3, #0x4006e98 {}
3120 3121 3122 3123 3125 ldr r3, [sp, #0x9c] {}
3121 3122 3125 3126 3128 ldr r0, [r3, #0xc] {load-use}
3122 3125 3128 3129 3130 cbz r0, #0x4006e98 {load-use}
3125 3128 3129 3130 3131 adds r5, #1 {}
3128 3129 3130 3131 3132 cmp r11, r5 {}
3129 3130 3131 3132 3133 bhi #0x4006df6 {}
3130 3131 3132 3133 3135 ldr r3, [r6], #4 {}
3131 3132 3135 3136 3138 ldr r4, [r3, #0x14] {load-use}
3132 3135 3138 3139 3140 cmp r4, r9 {load-use}
3135 3138 3139 3140 3141 beq #0x4006e98 {}
3138 3139 3140 3141 3142 ands r10, r7, #2 {}
3139 3140 3141 3142 3143 beq #0x4006e0e {bmispred}
3142 3143 3144 3145 3147 ldrb.w r3, [r4, #0x195] {}
3143 3144 3147 3148 3149 lsls r2, r3, #0x1a {load-use}
3144 3147 3148 3149 3150 bmi #0x4006e98 {}
3147 3148 3149 3150 3152 ldr r3, [sp, #0x20] {}
3148 3149 3152 3153 3155 ldr r3, [r3] {load-use}
3149 3152 3155 3156 3157 lsls r3, r3, #0x1c {load-use}
3152 3155 3156 3157 3158 bmi #0x4006ea6 {}
3155 3156 3157 3158 3160 ldr.w r1, [r4, #0x178] {}
3156 3157 3160 3161 3162 cmp r1, #0 {load-use}
3157 3160 3161 3162 3163 beq #0x4006e98 {}
3160 3161 3162 3163 3165 ldr r2, [r4, #0x38] {}
3161 3162 3163 3165 3166 movs r0, #0 {}
3162 3163 3165 3166 3168 ldr r3, [r4, #0x34] {}
3163 3165 3166 3168 3170 ldr.w lr, [r4, #0x184] {}
3165 3166 3168 3170 3172 ldr r2, [r2, #4] {}
3166 3168 3170 3172 3174 ldr r3, [r3, #4] {}
3168 3170 3172 3174 3176 str r0, [sp, #0x60] {}
3170 3172 3174 3176 3178 str r2, [sp, #0x38] {}
3172 3174 3176 3178 3180 str r3, [sp, #0x24] {}
3174 3176 3178 3180 3182 str r0, [sp, #0x64] {}
3176 3178 3180 3182 3183 cmp.w lr, #0 {}
3178 3180 3182 3183 3184 beq #0x4006ed2 {}
3180 3182 3183 3184 3186 ldr.w r3, [r4, #0x180] {}
3182 3183 3184 3186 3188 ldr.w r0, [r4, #0x17c] {}
3183 3184 3186 3188 3190 ldr r2, [sp, #0x28] {}
3184 3186 3188 3190 3192 str r3, [sp, #0x2c] {}
3186 3188 3190 3192 3194 ldr r3, [sp, #0x30] {}
3188 3190 3192 3194 3195 and r12, r2, #0x1f {}
3190 3192 3194 3195 3196 ands r0, r3 {}
3192 3194 3195 3196 3198 ldr r3, [sp, #0x2c] {}
3194 3195 3196 3198 3200 ldr.w r0, [lr, r0, lsl #2] {}
3195 3196 3198 3200 3201 lsr.w r3, r2, r3 {}
3196 3198 3200 3201 3202 and r3, r3, #0x1f {}
3198 3200 3201 3202 3203 mov r2, r12 {}
3200 3201 3202 3203 3204 lsr.w r3, r0, r3 {}
3201 3202 3203 3204 3205 lsrs r0, r2 {}
3202 3203 3204 3205 3206 ands r3, r0 {}
3203 3204 3205 3206 3207 lsls r0, r3, #0x1f {}
3204 3205 3206 3207 3208 bmi.w #0x4007180 {bmispred}
3207 3208 3209 3210 3212 ldr.w r8, [sp, #0x28] {}
3208 3209 3212 3213 3214 mov r0, r8 {load-use}
3209 3212 3213 3214 3215 bl #0x40135a4 {bmispred}
3214 3215 3216 3217 3218 cmp r1, #0 {}
3215 3216 3217 3218 3219 beq #0x401359a {}
3216 3217 3218 3219 3221 push.w {r0, r1, lr} {}
3217 3218 3219 3221 3222 bl #0x4013348 {bmispred}
3220 3221 3222 3223 3224 subs r2, r1, #1 {}
3221 3222 3223 3224 3225 it eq {}
3222 3223 3224 3225 3226 bxeq lr {}
3223 3224 3225 3226 3227 blo.w #0x401359a {}
3224 3225 3226 3227 3228 cmp r0, r1 {}
3225 3226 3227 3228 3229 bls.w #0x4013584 {}
3226 3227 3228 3229 3230 tst r1, r2 {}
3227 3228 3229 3230 3231 beq.w #0x401358c {}
3228 3229 3230 3231 3232 clz r3, r0 {}
3229 3230 3231 3232 3233 clz r2, r1 {}
3230 3231 3232 3233 3234 sub.w r3, r2, r3 {}
3231 3232 3233 3234 3235 rsb.w r3, r3, #0x1f {}
3232 3233 3234 3235 3236 adr r2, #0x10 {}
3233 3234 3235 3236 3237 add.w r3, r2, r3, lsl #4 {}
3234 3235 3236 3237 3238 mov.w r2, #0 {}
3235 3236 3237 3238 3239 mov pc, r3 {bmispred}
3238 3239 3240 3241 3242 cmp.w r0, r1, lsl #20 {}
3239 3240 3241 3242 3243 nop  {}
3240 3241 3242 3243 3244 adc.w r2, r2, r2 {}
3241 3242 3243 3244 3245 it hs {}
3242 3243 3244 3245 3246 subhs.w r0, r0, r1, lsl #20 {}
3243 3244 3245 3246 3247 cmp.w r0, r1, lsl #19 {}
3244 3245 3246 3247 3248 nop  {}
3245 3246 3247 3248 3249 adc.w r2, r2, r2 {}
3246 3247 3248 3249 3250 it hs {}
3247 3248 3249 3250 3251 subhs.w r0, r0, r1, lsl #19 {}
3248 3249 3250 3251 3252 cmp.w r0, r1, lsl #18 {}
3249 3250 3251 3252 3253 nop  {}
3250 3251 3252 3253 3254 adc.w r2, r2, r2 {}
3251 3252 3253 3254 3255 it hs {}
3252 3253 3254 3255 3256 subhs.w r0, r0, r1, lsl #18 {}
3253 3254 3255 3256 3257 cmp.w r0, r1, lsl #17 {}
3254 3255 3256 3257 3258 nop  {}
3255 3256 3257 3258 3259 adc.w r2, r2, r2 {}
3256 3257 3258 3259 3260 it hs {}
3257 3258 3259 3260 3261 subhs.w r0, r0, r1, lsl #17 {}
3258 3259 3260 3261 3262 cmp.w r0, r1, lsl #16 {}
3259 3260 3261 3262 3263 nop  {}
3260 3261 3262 3263 3264 adc.w r2, r2, r2 {}
3261 3262 3263 3264 3265 it hs {}
3262 3263 3264 3265 3266 subhs.w r0, r0, r1, lsl #16 {}
3263 3264 3265 3266 3267 cmp.w r0, r1, lsl #15 {}
3264 3265 3266 3267 3268 nop  {}
3265 3266 3267 3268 3269 adc.w r2, r2, r2 {}
3266 3267 3268 3269 3270 it hs {}
3267 3268 3269 3270 3271 subhs.w r0, r0, r1, lsl #15 {}
3268 3269 3270 3271 3272 cmp.w r0, r1, lsl #14 {}
3269 3270 3271 3272 3273 nop  {}
3270 3271 3272 3273 3274 adc.w r2, r2, r2 {}
3271 3272 3273 3274 3275 it hs {}
3272 3273 3274 3275 3276 subhs.w r0, r0, r1, lsl #14 {}
3273 3274 3275 3276 3277 cmp.w r0, r1, lsl #13 {}
3274 3275 3276 3277 3278 nop  {}
3275 3276 3277 3278 3279 adc.w r2, r2, r2 {}
3276 3277 3278 3279 3280 it hs {}
3277 3278 3279 3280 3281 subhs.w r0, r0, r1, lsl #13 {}
3278 3279 3280 3281 3282 cmp.w r0, r1, lsl #12 {}
3279 3280 3281 3282 3283 nop  {}
3280 3281 3282 3283 3284 adc.w r2, r2, r2 {}
3281 3282 3283 3284 3285 it hs {}
3282 3283 3284 3285 3286 subhs.w r0, r0, r1, lsl #12 {}
3283 3284 3285 3286 3287 cmp.w r0, r1, lsl #11 {}
3284 3285 3286 3287 3288 nop  {}
3285 3286 3287 3288 3289 adc.w r2, r2, r2 {}
3286 3287 3288 3289 3290 it hs {}
3287 3288 3289 3290 3291 subhs.w r0, r0, r1, lsl #11 {}
3288 3289 3290 3291 3292 cmp.w r0, r1, lsl #10 {}
3289 3290 3291 3292 3293 nop  {}
3290 3291 3292 3293 3294 adc.w r2, r2, r2 {}
3291 3292 3293 3294 3295 it hs {}
3292 3293 3294 3295 3296 subhs.w r0, r0, r1, lsl #10 {}
3293 3294 3295 3296 3297 cmp.w r0, r1, lsl #9 {}
3294 3295 3296 3297 3298 nop  {}
3295 3296 3297 3298 3299 adc.w r2, r2, r2 {}
3296 3297 3298 3299 3300 it hs {}
3297 3298 3299 3300 3301 subhs.w r0, r0, r1, lsl #9 {}
3298 3299 3300 3301 3302 cmp.w r0, r1, lsl #8 {}
3299 3300 3301 3302 3303 nop  {}
3300 3301 3302 3303 3304 adc.w r2, r2, r2 {}
3301 3302 3303 3304 3305 it hs {}
3302 3303 3304 3305 3306 subhs.w r0, r0, r1, lsl #8 {}
3303 3304 3305 3306 3307 cmp.w r0, r1, lsl #7 {}
3304 3305 3306 3307 3308 nop  {}
3305 3306 3307 3308 3309 adc.w r2, r2, r2 {}
3306 3307 3308 3309 3310 it hs {}
3307 3308 3309 3310 3311 subhs.w r0, r0, r1, lsl #7 {}
3308 3309 3310 3311 3312 cmp.w r0, r1, lsl #6 {}
3309 3310 3311 3312 3313 nop  {}
3310 3311 3312 3313 3314 adc.w r2, r2, r2 {}
3311 3312 3313 3314 3315 it hs {}
3312 3313 3314 3315 3316 subhs.w r0, r0, r1, lsl #6 {}
3313 3314 3315 3316 3317 cmp.w r0, r1, lsl #5 {}
3314 3315 3316 3317 3318 nop  {}
3315 3316 3317 3318 3319 adc.w r2, r2, r2 {}
3316 3317 3318 3319 3320 it hs {}
3317 3318 3319 3320 3321 subhs.w r0, r0, r1, lsl #5 {}
3318 3319 3320 3321 3322 cmp.w r0, r1, lsl #4 {}
3319 3320 3321 3322 3323 nop  {}
3320 3321 3322 3323 3324 adc.w r2, r2, r2 {}
3321 3322 3323 3324 3325 it hs {}
3322 3323 3324 3325 3326 subhs.w r0, r0, r1, lsl #4 {}
3323 3324 3325 3326 3327 cmp.w r0, r1, lsl #3 {}
3324 3325 3326 3327 3328 nop  {}
3325 3326 3327 3328 3329 adc.w r2, r2, r2 {}
3326 3327 3328 3329 3330 it hs {}
3327 3328 3329 3330 3331 subhs.w r0, r0, r1, lsl #3 {}
3328 3329 3330 3331 3332 cmp.w r0, r1, lsl #2 {}
3329 3330 3331 3332 3333 nop  {}
3330 3331 3332 3333 3334 adc.w r2, r2, r2 {}
3331 3332 3333 3334 3335 it hs {}
3332 3333 3334 3335 3336 subhs.w r0, r0, r1, lsl #2 {}
3333 3334 3335 3336 3337 cmp.w r0, r1, lsl #1 {}
3334 3335 3336 3337 3338 nop  {}
3335 3336 3337 3338 3339 adc.w r2, r2, r2 {}
3336 3337 3338 3339 3340 it hs {}
3337 3338 3339 3340 3341 subhs.w r0, r0, r1, lsl #1 {}
3338 3339 3340 3341 3342 cmp.w r0, r1 {}
3339 3340 3341 3342 3343 nop  {}
3340 3341 3342 3343 3344 adc.w r2, r2, r2 {}
3341 3342 3343 3344 3345 it hs {}
3342 3343 3344 3345 3346 subhs.w r0, r0, r1 {}
3343 3344 3345 3346 3347 mov r0, r2 {}
3344 3345 3346 3347 3348 bx lr {bmispred}
3347 3348 3349 3350 3352 pop.w {r1, r2, lr} {}
3348 3349 3350 3352 3353 mul r3, r2, r0 {}
3349 3350 3352 3353 3354 sub.w r1, r1, r3 {}
3350 3352 3353 3354 3355 bx lr {bmispred}
3354 3355 3356 3357 3359 ldr.w r3, [r4, #0x188] {}
3355 3356 3359 3360 3362 ldr.w r3, [r3, r1, lsl #2] {load-use}
3356 3359 3362 3363 3364 cmp r3, #0 {load-use}
3359 3362 3363 3364 3365 beq.w #0x4006e74 {}
3362 3363 3364 3365 3367 ldr.w r2, [r4, #0x18c] {}
3363 3364 3365 3367 3368 add r1, sp, #0x60 {}
3364 3365 3367 3368 3370 str.w r10, [sp, #0x54] {}
3365 3367 3368 3370 3371 add.w r3, r2, r3, lsl #2 {}
3367 3368 3370 3371 3373 str r1, [sp, #0x2c] {}
3368 3370 3371 3373 3375 str r6, [sp, #0x58] {}
3370 3371 3373 3375 3376 add r1, sp, #0x64 {}
3371 3373 3375 3376 3378 str r5, [sp, #0x98] {}
3373 3375 3376 3378 3379 mov r6, r3 {}
3375 3376 3378 3379 3381 str.w r9, [sp, #0xa4] {}
3376 3378 3379 3381 3382 mov r5, r4 {}
3378 3379 3381 3382 3384 str.w r11, [sp, #0x5c] {}
3379 3381 3382 3384 3386 str r1, [sp, #0x50] {}
3381 3382 3384 3386 3388 ldr.w r10, [sp, #0x3c] {}
3382 3384 3386 3388 3390 ldr.w r9, [sp, #0x38] {}
3384 3386 3388 3390 3392 ldr.w r11, [sp, #0x34] {}
3386 3388 3390 3392 3393 b #0x40071d4 {bmispred}
3391 3392 3393 3394 3396 ldr r3, [r6] {}
3392 3393 3396 3397 3398 eor.w r2, r8, r3 {load-use}
3393 3396 3397 3398 3399 lsrs r2, r2, #1 {}
3396 3397 3398 3399 3400 bne #0x40071ca {bmispred}
3399 3400 3401 3402 3403 lsls r1, r3, #0x1f {}
3400 3401 3402 3403 3404 add.w r6, r6, #4 {}
3401 3402 3403 3404 3405 bmi.w #0x4007382 {}
3402 3403 3404 3405 3407 ldr r3, [r6] {}
3403 3404 3407 3408 3409 eor.w r2, r8, r3 {load-use}
3404 3407 3408 3409 3410 lsrs r2, r2, #1 {}
3407 3408 3409 3410 3411 bne #0x40071ca {}
3408 3409 3410 3411 3412 lsls r1, r3, #0x1f {}
3409 3410 3411 3412 3413 add.w r6, r6, #4 {}
3410 3411 3412 3413 3414 bmi.w #0x4007382 {}
3411 3412 3413 3414 3416 ldr r3, [r6] {}
3412 3413 3416 3417 3418 eor.w r2, r8, r3 {load-use}
3413 3416 3417 3418 3419 lsrs r2, r2, #1 {}
3416 3417 3418 3419 3420 bne #0x40071ca {}
3417 3418 3419 3420 3421 lsls r1, r3, #0x1f {}
3418 3419 3420 3421 3422 add.w r6, r6, #4 {}
3419 3420 3421 3422 3423 bmi.w #0x4007382 {}
3420 3421 3422 3423 3425 ldr r3, [r6] {}
3421 3422 3425 3426 3427 eor.w r2, r8, r3 {load-use}
3422 3425 3426 3427 3428 lsrs r2, r2, #1 {}
3425 3426 3427 3428 3429 bne #0x40071ca {}
3426 3427 3428 3429 3430 lsls r1, r3, #0x1f {}
3427 3428 3429 3430 3431 add.w r6, r6, #4 {}
3428 3429 3430 3431 3432 bmi.w #0x4007382 {}
3429 3430 3431 3432 3434 ldr r3, [r6] {}
3430 3431 3434 3435 3436 eor.w r2, r8, r3 {load-use}
3431 3434 3435 3436 3437 lsrs r2, r2, #1 {}
3434 3435 3436 3437 3438 bne #0x40071ca {bmispred}
3437 3438 3439 3440 3442 ldr.w r4, [r5, #0x18c] {}
3438 3439 3440 3442 3444 ldr r2, [sp, #0x2c] {}
3439 3440 3442 3444 3445 subs r4, r6, r4 {}
3440 3442 3444 3445 3447 ldr r1, [sp, #0x50] {}
3442 3444 3445 3447 3449 ldr r0, [sp, #0x24] {}
3444 3445 3447 3449 3450 asrs r4, r4, #2 {}
3445 3447 3449 3450 3452 str r2, [sp, #0x18] {}
3447 3449 3450 3452 3454 str r1, [sp, #0x14] {}
3449 3450 3452 3454 3455 mov r1, r10 {}
3450 3452 3454 3455 3457 str r0, [sp, #0xc] {}
3452 3454 3455 3457 3458 add.w lr, r9, r4, lsl #4 {}
3454 3455 3457 3458 3460 ldr r3, [sp, #0xa0] {}
3455 3457 3458 3460 3461 mov r0, r11 {}
3457 3458 3460 3461 3463 ldr r2, [sp, #0x9c] {}
3458 3460 3461 3463 3465 str r5, [sp, #0x10] {}
3460 3461 3463 3465 3467 str r4, [sp, #8] {}
3461 3463 3465 3467 3469 str r7, [sp] {}
3463 3465 3467 3469 3471 str.w lr, [sp, #4] {}
3465 3467 3469 3471 3472 bl #0x4006c98 {bmispred}
3470 3471 3472 3473 3475 push.w {r3, r4, r5, r6, r7, r8, r9, lr} {}
3471 3472 3473 3475 3477 ldr r4, [sp, #0x24] {}
3472 3473 3475 3477 3479 ldr.w r9, [sp, #0x30] {}
3473 3475 3477 3479 3481 ldrb r5, [r4, #0xc] {}
3475 3477 3479 3481 3483 ldr r6, [r4, #4] {}
3477 3479 3481 3483 3484 and r5, r5, #0xf {}
3479 3481 3483 3484 3485 clz r6, r6 {}
3481 3483 3484 3485 3486 cmp r5, #6 {}
3483 3484 3485 3486 3487 lsr.w r6, r6, #5 {}
3484 3485 3486 3487 3488 it eq {}
3485 3486 3487 3488 3489 moveq r6, #0 {}
3486 3487 3488 3489 3490 cmp r6, #0 {}
3487 3488 3489 3490 3491 bne #0x4006d5a {}
3488 3489 3490 3491 3493 ldrh r6, [r4, #0xe] {}
3489 3490 3491 3493 3495 ldr r7, [sp, #0x20] {}
3490 3491 3493 3495 3496 cmp r6, #0 {}
3491 3493 3495 3496 3497 ite ne {}
3493 3495 3496 3497 3498 movne r7, #0 {}
3495 3496 3497 3498 3499 andeq r7, r7, #1 {}
3496 3497 3498 3499 3500 cmp r7, #0 {}
3497 3498 3499 3500 3501 bne #0x4006d5a {}
3498 3499 3500 3501 3502 movw r6, #0x467 {}
3499 3500 3501 3502 3503 asr.w r5, r6, r5 {}
3500 3501 3502 3503 3504 lsls r5, r5, #0x1f {}
3501 3502 3503 3504 3505 bpl #0x4006d5a {}
3502 3503 3504 3505 3506 mov r6, r3 {}
3503 3504 3505 3506 3507 mov r3, r1 {}
3504 3505 3506 3507 3508 cmp r4, r3 {}
3505 3506 3507 3508 3509 mov r5, r2 {}
3506 3507 3508 3509 3510 mov r1, r0 {}
3507 3508 3509 3510 3511 beq #0x4006cf4 {bmispred}
3510 3511 3512 3513 3515 ldr.w r3, [r9, #0x1a4] {}
3511 3512 3513 3515 3516 cbz r5, #0x4006d2e {}
3512 3513 3515 3516 3517 cmp r3, #0 {}
3513 3515 3516 3517 3518 beq #0x4006d6e {}
3515 3516 3517 3518 3520 ldr r2, [sp, #0x28] {}
3516 3517 3518 3520 3522 ldr r1, [r5, #4] {}
3517 3518 3520 3522 3524 ldrh.w r8, [r3, r2, lsl #1] {}
3518 3520 3522 3524 3526 ldr.w r2, [r9, #0x170] {}
3520 3522 3524 3526 3527 ubfx r3, r8, #0, #0xf {}
3522 3524 3526 3527 3528 lsls r3, r3, #4 {}
3524 3526 3527 3528 3529 adds r0, r2, r3 {}
3526 3527 3528 3529 3531 ldr r6, [r0, #4] {}
3527 3528 3531 3532 3533 cmp r6, r1 {load-use}
3528 3531 3532 3533 3534 beq #0x4006d60 {bmispred}
3533 3534 3535 3536 3538 ldr r0, [r2, r3] {}
3534 3535 3536 3538 3540 ldr r1, [r5] {}
3535 3536 3538 3540 3541 bl #0x4012090 {bmispred}
3539 3540 3541 3542 3544 ldrb r2, [r0] {}
3540 3541 3542 3544 3546 ldrb r3, [r1] {}
3541 3542 3544 3546 3547 cmp r2, #1 {}
3542 3544 3546 3547 3548 it hs {}
3544 3546 3547 3548 3549 cmphs r2, r3 {}
3546 3547 3548 3549 3550 bne #0x4012080 {}
3547 3548 3549 3550 3552 strd r4, r5, [sp, #-0x10]! {}
3548 3549 3550 3552 3553 orr.w r4, r0, r1 {}
3549 3550 3552 3553 3555 strd r6, r7, [sp, #8] {}
3550 3552 3553 3555 3556 mvn r12, #0 {}
3552 3553 3555 3556 3557 lsl.w r2, r4, #0x1d {}
3553 3555 3556 3557 3558 cbz r2, #0x4012100 {}
3555 3556 3557 3558 3559 eor.w r4, r0, r1 {}
3556 3557 3558 3559 3560 tst.w r4, #7 {}
3557 3558 3559 3560 3561 bne #0x401219a {}
3558 3559 3560 3561 3562 and r4, r0, #7 {}
3559 3560 3561 3562 3563 bic r0, r0, #7 {}
3560 3561 3562 3563 3564 and r5, r4, #3 {}
3561 3562 3563 3564 3565 bic r1, r1, #7 {}
3562 3563 3564 3565 3566 lsl.w r5, r5, #3 {}
3563 3564 3565 3566 3568 ldrd r2, r3, [r0], #0x10 {}
3564 3565 3566 3568 3569 tst.w r4, #4 {}
3565 3566 3568 3569 3571 ldrd r6, r7, [r1], #0x10 {}
3566 3568 3569 3571 3572 lsl.w r4, r12, r5 {}
3568 3569 3571 3572 3573 orn r2, r2, r4 {}
3569 3571 3572 3573 3574 orn r6, r6, r4 {}
3571 3572 3573 3574 3575 beq #0x4012108 {bmispred}
3574 3575 3576 3577 3578 uadd8 r5, r2, r12 {}
3575 3576 3577 3578 3579 eor.w r4, r2, r6 {}
3576 3577 3578 3579 3580 sel r4, r4, r12 {}
3577 3578 3579 3580 3581 cbnz r4, #0x4012172 {}
3578 3579 3580 3581 3582 uadd8 r5, r3, r12 {}
3579 3580 3581 3582 3583 eor.w r5, r3, r7 {}
3580 3581 3582 3583 3584 sel r5, r5, r12 {}
3581 3582 3583 3584 3585 cbnz r5, #0x401214a {}
3582 3583 3584 3585 3587 ldrd r2, r3, [r0, #-0x8] {}
3583 3584 3585 3587 3589 ldrd r6, r7, [r1, #-0x8] {}
3584 3585 3587 3589 3590 uadd8 r5, r2, r12 {}
3585 3587 3589 3590 3591 eor.w r4, r2, r6 {}
3587 3589 3590 3591 3592 sel r4, r4, r12 {}
3589 3590 3591 3592 3593 uadd8 r5, r3, r12 {}
3590 3591 3592 3593 3594 eor.w r5, r3, r7 {}
3591 3592 3593 3594 3595 sel r5, r5, r12 {}
3592 3593 3594 3595 3596 orrs r5, r4 {}
3593 3594 3595 3596 3597 beq #0x4012100 {}
3594 3595 3596 3597 3598 cbnz r4, #0x4012172 {}
3595 3596 3597 3598 3599 rev r5, r5 {}
3596 3597 3598 3599 3600 clz r4, r5 {}
3597 3598 3599 3600 3601 bic r4, r4, #7 {}
3598 3599 3600 3601 3602 lsr.w r1, r7, r4 {}
3599 3600 3601 3602 3604 ldrd r6, r7, [sp, #8] {}
3600 3601 3602 3604 3605 lsr.w r3, r3, r4 {}
3601 3602 3604 3605 3606 and r0, r3, #0xff {}
3602 3604 3605 3606 3607 and r1, r1, #0xff {}
3604 3605 3606 3607 3609 ldrd r4, r5, [sp], #0x10 {}
3605 3606 3607 3609 3610 sub.w r0, r0, r1 {}
3606 3607 3609 3610 3611 bx lr {bmispred}
3610 3611 3612 3613 3614 cmp r0, #0 {}
3611 3612 3613 3614 3615 bne #0x4006d18 {}
3612 3613 3614 3615 3616 b #0x4006d28 {bmispred}
3615 3616 3617 3618 3619 mov r0, r4 {}
3616 3617 3618 3619 3621 pop.w {r3, r4, r5, r6, r7, r8, r9, pc} {bmispred}
3619 3620 3621 3622 3623 cmp r0, #0 {}
3620 3621 3622 3623 3624 bne.w #0x40074e6 {bmispred}
3623 3624 3625 3626 3627 mov r8, r4 {}
3624 3625 3626 3627 3628 mov r3, r0 {}
3625 3626 3627 3628 3629 mov r4, r5 {}
3626 3627 3628 3629 3631 ldr.w r10, [sp, #0x54] {}
3627 3628 3629 3631 3633 ldr r6, [sp, #0x58] {}
3628 3629 3631 3633 3635 ldr r5, [sp, #0x98] {}
3629 3631 3633 3635 3637 ldr.w r9, [sp, #0xa4] {}
3631 3633 3635 3637 3639 ldr.w r11, [sp, #0x5c] {}
3633 3635 3637 3639 3640 b #0x4006f60 {bmispred}
3638 3639 3640 3641 3643 ldr r2, [sp, #0xac] {}
3639 3640 3643 3644 3645 cmp r2, #0 {load-use}
3640 3643 3644 3645 3646 beq.w #0x40070da {}
3643 3644 3645 3646 3648 ldrb r2, [r3, #0xc] {}
3644 3645 3648 3649 3650 lsrs r2, r2, #4 {load-use}
3645 3648 3649 3650 3651 cmp r2, #2 {}
3648 3649 3650 3651 3652 beq #0x4006f82 {bmispred}
3651 3652 3653 3654 3656 ldr r2, [sp, #0x40] {}
3652 3653 3656 3657 3659 ldr r2, [r2, #0x34] {load-use}
3653 3656 3659 3660 3661 cmp r2, #0 {load-use}
3656 3659 3660 3661 3662 bne.w #0x400735c {}
3659 3660 3661 3662 3664 ldr r2, [sp, #0x90] {}
3660 3661 3662 3664 3665 movs r0, #1 {}
3661 3662 3664 3665 3667 str r3, [r2] {}
3662 3664 3665 3667 3669 str r4, [r2, #4] {}
3664 3665 3667 3669 3670 add sp, #0x6c {}
3665 3667 3669 3670 3672 pop.w {r4, r5, r6, r7, r8, r9, r10, r11, pc} {bmispred}
3670 3671 3672 3673 3674 subs r2, r0, #0 {}
3671 3672 3673 3674 3675 ble #0x400763a {}
3672 3673 3674 3675 3677 ldr r3, [r7, #0x28] {}
3673 3674 3675 3677 3679 str.w r4, [r7, #0x8c] {}
3674 3675 3677 3679 3680 mov r4, r8 {}
3675 3677 3679 3680 3682 ldr.w r8, [r7, #0x8c] {}
3677 3679 3680 3682 3683 cmp r3, #0 {}
3679 3680 3682 3683 3684 beq.w #0x40078f8 {}
3680 3682 3683 3684 3686 ldr.w r3, [r10] {}
3682 3683 3686 3687 3688 cbz r3, #0x40076b0 {load-use}
3683 3686 3687 3688 3690 ldrb r2, [r3, #0xd] {}
3686 3687 3690 3691 3692 and r2, r2, #3 {load-use}
3687 3690 3691 3692 3693 cmp r2, #3 {}
3690 3691 3692 3693 3694 beq #0x40076ec {}
3691 3692 3693 3694 3696 ldr r4, [r7, #0x2c] {}
3692 3693 3694 3696 3697 movs r5, #0 {}
3693 3694 3696 3697 3699 ldrb.w r3, [r4, #0x194] {}
3694 3696 3699 3700 3701 and r3, r3, #3 {load-use}
3696 3699 3700 3701 3702 cmp r3, #2 {}
3699 3700 3701 3702 3703 beq #0x40077a8 {}
3700 3701 3702 3703 3704 mov r0, r4 {}
3701 3702 3703 3704 3706 ldr.w r3, [r0, #0x1fc] {}
3702 3703 3706 3707 3708 cmp r3, #0 {load-use}
3703 3706 3707 3708 3709 beq.w #0x4007a54 {}
3706 3707 3708 3709 3711 ldr.w r3, [pc, #0xa54] {}
3707 3708 3709 3711 3712 movw r2, #0x804 {}
3708 3709 3711 3712 3713 add r3, pc {}
3709 3711 3712 3713 3715 ldr r3, [r3] {}
3711 3712 3715 3716 3717 tst r3, r2 {load-use}
3712 3715 3716 3717 3718 bne.w #0x400791e {}
3715 3716 3717 3718 3720 ldr r1, [r7, #0x28] {}
3716 3717 3718 3720 3722 str.w r1, [r10] {}
3717 3718 3720 3722 3723 adds r7, #0x5c {}
3718 3720 3722 3723 3724 mov sp, r7 {}
3720 3722 3723 3724 3726 pop.w {r4, r5, r6, r7, r8, r9, r10, r11, pc} {bmispred}
3724 3725 3726 3727 3729 ldr r3, [r7, #0x54] {}
3725 3726 3727 3729 3731 str.w r3, [r6, #0x224] {}
3726 3727 3729 3731 3732 mov r2, r0 {}
3727 3729 3731 3732 3734 str.w r0, [r6, #0x220] {}
3729 3731 3732 3734 3735 cmp r2, #0 {}
3731 3732 3734 3735 3736 beq.w #0x4008e00 {}
3732 3734 3735 3736 3738 ldr r0, [r2] {}
3734 3735 3736 3738 3740 ldr r1, [r3, #4] {}
3735 3736 3740 3741 3742 adds r1, r0, r1 {load-use}
3736 3740 3741 3742 3744 str r1, [r7, #0x3c] {}
3740 3741 3742 3744 3746 ldrb r1, [r3, #0xc] {}
3741 3742 3746 3747 3748 and r1, r1, #0xf {load-use}
3742 3746 3747 3748 3749 cmp r1, #0xa {}
3746 3747 3748 3749 3750 beq.w #0x4009094 {}
3747 3748 3749 3750 3751 cmp r5, #0x12 {}
3748 3749 3750 3751 3752 beq.w #0x400907a {}
3749 3750 3751 3752 3753 bhi #0x4008d1a {bmispred}
3752 3753 3754 3755 3756 cmp r5, #0x16 {}
3753 3754 3755 3756 3757 bhi.w #0x4008e42 {}
3754 3755 3756 3757 3758 cmp r5, #0x15 {}
3755 3756 3757 3758 3759 bhs.w #0x4009024 {bmispred}
3758 3759 3760 3761 3763 ldr r3, [r7, #0x3c] {}
3759 3760 3761 3763 3764 add.w r10, r10, #8 {}
3760 3761 3763 3764 3766 str.w r3, [r9, r8] {}
3761 3763 3764 3766 3768 ldr r3, [r7, #0x2c] {}
3763 3764 3768 3769 3770 cmp r3, r10 {load-use}
3764 3768 3769 3770 3771 bhi.w #0x4008c0a {bmispred}
3770 3771 3772 3773 3775 ldr.w r5, [r10, #4] {}
3771 3772 3773 3775 3777 ldr.w r8, [r10] {}
3772 3773 3775 3777 3779 ldr.w r1, [r6, #0x170] {}
3773 3775 3777 3779 3780 add.w r2, r9, r8 {}
3775 3777 3779 3780 3782 str r2, [r7, #0x48] {}
3777 3779 3780 3782 3784 ldr r2, [r7, #0x34] {}
3779 3780 3782 3784 3785 lsrs r3, r5, #8 {}
3780 3782 3784 3785 3786 uxtb r5, r5 {}
3782 3784 3785 3786 3787 lsl.w r11, r3, #4 {}
3784 3785 3786 3787 3788 cmp r5, #0x17 {}
3785 3786 3787 3788 3790 ldrh.w r3, [r2, r3, lsl #1] {}
3786 3787 3788 3790 3792 ldr r2, [r7, #0x4c] {}
3787 3788 3792 3793 3794 add.w r4, r2, r11 {load-use}
3788 3792 3793 3794 3796 str r4, [r7, #0x54] {}
3792 3793 3794 3796 3797 beq.w #0x4008e66 {}
3793 3794 3796 3797 3798 cmp r5, #0 {}
3794 3796 3797 3798 3799 beq #0x4008d06 {}
3796 3797 3798 3799 3801 ldrb r2, [r4, #0xc] {}
3797 3798 3801 3802 3803 lsrs r2, r2, #4 {load-use}
3798 3801 3802 3803 3804 beq #0x4008d14 {}
3801 3802 3803 3804 3806 ldr.w r2, [r6, #0x218] {}
3802 3803 3806 3807 3808 cmp r4, r2 {load-use}
3803 3806 3807 3808 3809 beq.w #0x400919c {}
3806 3807 3808 3809 3810 cmp r5, #0x11 {}
3807 3808 3809 3810 3811 it ne {}
3808 3809 3810 3811 3812 cmpne r5, #0x16 {}
3809 3810 3811 3812 3813 it eq {}
3810 3811 3812 3813 3814 moveq r2, #1 {}
3811 3812 3813 3814 3815 beq #0x4008c68 {}
3812 3813 3814 3815 3816 sub.w r2, r5, #0x12 {}
3813 3814 3815 3816 3817 cmp r5, #0xd {}
3814 3815 3816 3817 3818 it ne {}
3815 3816 3817 3818 3819 cmpne r2, #1 {}
3816 3817 3818 3819 3820 ite ls {}
3817 3818 3819 3820 3821 movls r2, #1 {}
3818 3819 3820 3821 3822 movhi r2, #0 {}
3819 3820 3821 3822 3823 cmp r5, #0x14 {}
3820 3821 3822 3823 3824 beq.w #0x4008e34 {}
3821 3822 3823 3824 3825 cmp r5, #0x15 {}
3822 3823 3824 3825 3826 ite ne {}
3823 3824 3825 3826 3827 movne r0, #0 {}
3824 3825 3826 3827 3828 moveq r0, #4 {}
3825 3826 3827 3828 3829 ubfx r3, r3, #0, #0xf {}
3826 3827 3828 3829 3830 orrs r2, r0 {}
3827 3828 3829 3830 3832 str.w r4, [r6, #0x218] {}
3828 3829 3830 3832 3833 adds.w r3, r1, r3, lsl #4 {}
3829 3830 3832 3833 3835 str.w r2, [r6, #0x21c] {}
3830 3832 3833 3835 3836 beq #0x4008c92 {}
3832 3833 3835 3836 3838 ldr r1, [r3, #4] {}
3833 3835 3838 3839 3840 cmp r1, #0 {load-use}
3835 3838 3839 3840 3841 it eq {}
3838 3839 3840 3841 3842 moveq r3, #0 {}
3839 3840 3841 3842 3844 ldr r1, [r7, #0x4c] {}
3840 3841 3842 3844 3845 mov.w lr, #1 {}
3841 3842 3844 3845 3847 ldr.w r0, [r1, r11] {}
3842 3844 3845 3847 3848 movs r1, #0 {}
3844 3845 3847 3848 3850 str r2, [sp, #4] {}
3845 3847 3848 3850 3852 ldr r2, [r7, #0x30] {}
3847 3848 3850 3852 3854 str r3, [sp] {}
3848 3850 3852 3854 3855 add r0, r2 {}
3850 3852 3854 3855 3857 str r1, [sp, #0xc] {}
3852 3854 3855 3857 3859 ldr r3, [r7, #0x44] {}
3854 3855 3857 3859 3860 add.w r2, r7, #0x54 {}
3855 3857 3859 3860 3862 str.w lr, [sp, #8] {}
3857 3859 3860 3862 3863 mov r1, r6 {}
3859 3860 3862 3863 3864 bl #0x40075a0 {bmispred}
3863 3864 3865 3866 3868 push.w {r4, r5, r6, r7, r8, r9, r10, r11, lr} {}
3864 3865 3866 3868 3869 mov r6, r1 {}
3865 3866 3868 3869 3870 sub sp, #0x7c {}
3866 3868 3869 3870 3872 ldrb r1, [r0] {}
3868 3869 3870 3872 3873 add r7, sp, #0x20 {}
3869 3870 3872 3873 3874 mov r9, r0 {}
3870 3872 3873 3874 3875 mov r10, r2 {}
3872 3873 3874 3875 3877 str r3, [r7, #0x10] {}
3873 3874 3875 3877 3879 ldr.w r11, [r7, #0x80] {}
3874 3875 3877 3879 3881 ldr.w r8, [r7, #0x8c] {}
3875 3877 3879 3881 3882 cmp r1, #0 {}
3877 3879 3881 3882 3883 beq.w #0x4007918 {}
3879 3881 3882 3883 3884 mov r3, r0 {}
3881 3882 3883 3884 3885 movw r4, #0x1505 {}
3882 3883 3884 3885 3886 add.w r4, r4, r4, lsl #5 {}
3883 3884 3885 3886 3887 add r4, r1 {}
3884 3885 3886 3887 3889 ldrb r1, [r3, #1]! {}
3885 3886 3889 3890 3891 cmp r1, #0 {load-use}
3886 3889 3890 3891 3892 bne #0x40075c6 {}
3889 3890 3891 3892 3893 add.w r4, r4, r4, lsl #5 {}
3890 3891 3892 3893 3894 add r4, r1 {}
3891 3892 3893 3894 3896 ldrb r1, [r3, #1]! {}
3892 3893 3896 3897 3898 cmp r1, #0 {load-use}
3893 3896 3897 3898 3899 bne #0x40075c6 {}
3896 3897 3898 3899 3900 add.w r4, r4, r4, lsl #5 {}
3897 3898 3899 3900 3901 add r4, r1 {}
3898 3899 3900 3901 3903 ldrb r1, [r3, #1]! {}
3899 3900 3903 3904 3905 cmp r1, #0 {load-use}
3900 3903 3904 3905 3906 bne #0x40075c6 {}
3903 3904 3905 3906 3907 add.w r4, r4, r4, lsl #5 {}
3904 3905 3906 3907 3908 add r4, r1 {}
3905 3906 3907 3908 3910 ldrb r1, [r3, #1]! {}
3906 3907 3910 3911 3912 cmp r1, #0 {load-use}
3907 3910 3911 3912 3913 bne #0x40075c6 {}
3910 3911 3912 3913 3914 add.w r4, r4, r4, lsl #5 {}
3911 3912 3913 3914 3915 add r4, r1 {}
3912 3913 3914 3915 3917 ldrb r1, [r3, #1]! {}
3913 3914 3917 3918 3919 cmp r1, #0 {load-use}
3914 3917 3918 3919 3920 bne #0x40075c6 {}
3917 3918 3919 3920 3921 add.w r4, r4, r4, lsl #5 {}
3918 3919 3920 3921 3922 add r4, r1 {}
3919 3920 3921 3922 3924 ldrb r1, [r3, #1]! {}
3920 3921 3924 3925 3926 cmp r1, #0 {load-use}
3921 3924 3925 3926 3927 bne #0x40075c6 {}
3924 3925 3926 3927 3928 add.w r4, r4, r4, lsl #5 {}
3925 3926 3927 3928 3929 add r4, r1 {}
3926 3927 3928 3929 3931 ldrb r1, [r3, #1]! {}
3927 3928 3931 3932 3933 cmp r1, #0 {load-use}
3928 3931 3932 3933 3934 bne #0x40075c6 {}
3931 3932 3933 3934 3935 add.w r4, r4, r4, lsl #5 {}
3932 3933 3934 3935 3936 add r4, r1 {}
3933 3934 3935 3936 3938 ldrb r1, [r3, #1]! {}
3934 3935 3938 3939 3940 cmp r1, #0 {load-use}
3935 3938 3939 3940 3941 bne #0x40075c6 {}
3938 3939 3940 3941 3942 add.w r4, r4, r4, lsl #5 {}
3939 3940 3941 3942 3943 add r4, r1 {}
3940 3941 3942 3943 3945 ldrb r1, [r3, #1]! {}
3941 3942 3945 3946 3947 cmp r1, #0 {load-use}
3942 3945 3946 3947 3948 bne #0x40075c6 {}
3945 3946 3947 3948 3949 add.w r4, r4, r4, lsl #5 {}
3946 3947 3948 3949 3950 add r4, r1 {}
3947 3948 3949 3950 3952 ldrb r1, [r3, #1]! {}
3948 3949 3952 3953 3954 cmp r1, #0 {load-use}
3949 3952 3953 3954 3955 bne #0x40075c6 {}
3952 3953 3954 3955 3956 add.w r4, r4, r4, lsl #5 {}
3953 3954 3955 3956 3957 add r4, r1 {}
3954 3955 3956 3957 3959 ldrb r1, [r3, #1]! {}
3955 3956 3959 3960 3961 cmp r1, #0 {load-use}
3956 3959 3960 3961 3962 bne #0x40075c6 {}
3959 3960 3961 3962 3963 add.w r4, r4, r4, lsl #5 {}
3960 3961 3962 3963 3964 add r4, r1 {}
3961 3962 3963 3964 3966 ldrb r1, [r3, #1]! {}
3962 3963 3966 3967 3968 cmp r1, #0 {load-use}
3963 3966 3967 3968 3969 bne #0x40075c6 {}
3966 3967 3968 3969 3970 add.w r4, r4, r4, lsl #5 {}
3967 3968 3969 3970 3971 add r4, r1 {}
3968 3969 3970 3971 3973 ldrb r1, [r3, #1]! {}
3969 3970 3973 3974 3975 cmp r1, #0 {load-use}
3970 3973 3974 3975 3976 bne #0x40075c6 {}
3973 3974 3975 3976 3977 add.w r4, r4, r4, lsl #5 {}
3974 3975 3976 3977 3978 add r4, r1 {}
3975 3976 3977 3978 3980 ldrb r1, [r3, #1]! {}
3976 3977 3980 3981 3982 cmp r1, #0 {load-use}
3977 3980 3981 3982 3983 bne #0x40075c6 {}
3980 3981 3982 3983 3984 add.w r4, r4, r4, lsl #5 {}
3981 3982 3983 3984 3985 add r4, r1 {}
3982 3983 3984 3985 3987 ldrb r1, [r3, #1]! {}
3983 3984 3987 3988 3989 cmp r1, #0 {load-use}
3984 3987 3988 3989 3990 bne #0x40075c6 {}
3987 3988 3989 3990 3991 add.w r4, r4, r4, lsl #5 {}
3988 3989 3990 3991 3992 add r4, r1 {}
3989 3990 3991 3992 3994 ldrb r1, [r3, #1]! {}
3990 3991 3994 3995 3996 cmp r1, #0 {load-use}
3991 3994 3995 3996 3997 bne #0x40075c6 {}
3994 3995 3996 3997 3998 add.w r4, r4, r4, lsl #5 {}
3995 3996 3997 3998 3999 add r4, r1 {}
3996 3997 3998 3999 4001 ldrb r1, [r3, #1]! {}
3997 3998 4001 4002 4003 cmp r1, #0 {load-use}
3998 4001 4002 4003 4004 bne #0x40075c6 {bmispred}
4003 4004 4005 4006 4008 ldr.w r2, [pc, #0xb48] {}
4004 4005 4006 4008 4009 mov.w r3, #-1 {}
4005 4006 4008 4009 4011 str r3, [r7, #0x20] {}
4006 4008 4009 4011 4012 movs r1, #0 {}
4008 4009 4011 4012 4013 add r2, pc {}
4009 4011 4012 4013 4015 str r1, [r7, #0x28] {}
4011 4012 4013 4015 4017 str r1, [r7, #0x2c] {}
4012 4013 4015 4017 4019 ldr.w r3, [r2, #0x508] {}
4013 4015 4017 4019 4020 adds r3, #1 {}
4015 4017 4019 4020 4022 str.w r3, [r2, #0x508] {}
4017 4019 4020 4022 4023 cmp.w r11, #0 {}
4019 4020 4022 4023 4024 beq #0x4007602 {}
4020 4022 4023 4024 4026 ldr.w r3, [r7, #0x88] {}
4022 4023 4026 4027 4028 bics r3, r3, #5 {load-use}
4023 4026 4027 4028 4029 bne.w #0x4007ee2 {}
4026 4027 4028 4029 4031 ldr r3, [r7, #0x10] {}
4027 4028 4031 4032 4034 ldr.w lr, [r3] {load-use}
4028 4031 4032 4034 4035 cmp.w r8, #0 {}
4031 4032 4034 4035 4036 bne.w #0x40078dc {}
4032 4034 4035 4036 4037 cmp.w lr, #0 {}
4034 4035 4036 4037 4038 beq.w #0x40078f8 {}
4035 4036 4037 4038 4040 str.w r8, [r7, #0xc] {}
4036 4037 4038 4040 4042 ldr r5, [r7, #0x10] {}
4037 4038 4040 4042 4043 add.w r3, r7, #0x20 {}
4038 4040 4042 4043 4045 str.w r8, [r7, #0x8c] {}
4040 4042 4043 4045 4046 mov r8, r4 {}
4042 4043 4045 4046 4048 str r3, [r7, #0x18] {}
4043 4045 4046 4048 4049 add.w r3, r7, #0x28 {}
4045 4046 4048 4049 4051 ldr r0, [r7, #0xc] {}
4046 4048 4049 4051 4053 str r3, [r7, #0x14] {}
4048 4049 4051 4053 4055 str r5, [r7, #0x1c] {}
4049 4051 4053 4055 4057 ldr.w r4, [r7, #0x8c] {}
4051 4053 4055 4057 4058 b #0x400765e {bmispred}
4056 4057 4058 4059 4061 ldr.w r5, [r7, #0x84] {}
4057 4058 4059 4061 4062 mov r1, r8 {}
4058 4059 4061 4062 4064 ldr.w r3, [r10] {}
4059 4061 4062 4064 4066 ldr r2, [r7, #0x18] {}
4061 4062 4064 4066 4068 str r5, [sp, #0x18] {}
4062 4064 4066 4068 4070 ldr.w r5, [r7, #0x88] {}
4064 4066 4068 4070 4072 str r0, [sp, #8] {}
4066 4068 4070 4072 4073 mov r0, r9 {}
4068 4070 4072 4073 4075 str r6, [sp, #0x1c] {}
4070 4072 4073 4075 4077 str r5, [sp, #0x10] {}
4072 4073 4075 4077 4079 ldr r5, [r7, #0x14] {}
4073 4075 4077 4079 4081 str r4, [sp, #0x14] {}
4075 4077 4079 4081 4083 str.w r11, [sp, #0xc] {}
4077 4079 4081 4083 4085 str.w lr, [sp, #4] {}
4079 4081 4083 4085 4087 str r5, [sp] {}
4081 4083 4085 4087 4088 bl #0x4006da8 {bmispred}
4086 4087 4088 4089 4091 push.w {r4, r5, r6, r7, r8, r9, r10, r11, lr} {}
4087 4088 4089 4091 4092 sub sp, #0x6c {}
4088 4089 4091 4092 4094 ldr r4, [sp, #0x94] {}
4089 4091 4092 4094 4096 str r3, [sp, #0x3c] {}
4091 4092 4094 4096 4098 str r2, [sp, #0x44] {}
4092 4094 4096 4098 4100 ldr r3, [r4, #4] {}
4094 4096 4098 4100 4102 ldr.w r2, [pc, #0x79c] {}
4096 4098 4100 4102 4104 str r0, [sp, #0x34] {}
4098 4100 4102 4104 4105 add r2, pc {}
4100 4102 4104 4105 4106 mov r10, r3 {}
4102 4104 4105 4106 4108 str r2, [sp, #0x48] {}
4104 4105 4106 4108 4110 ldr r5, [sp, #0x98] {}
4105 4106 4108 4110 4112 ldr.w r9, [sp, #0xa4] {}
4106 4108 4110 4112 4114 ldr.w r8, [sp, #0xa8] {}
4108 4110 4112 4114 4116 ldr r6, [r4] {}
4110 4112 4114 4116 4117 lsrs r3, r1, #5 {}
4112 4114 4116 4117 4119 ldr.w r2, [pc, #0x784] {}
4114 4116 4117 4119 4120 mov r7, r8 {}
4116 4117 4119 4120 4122 str r3, [sp, #0x30] {}
4117 4119 4120 4122 4123 add.w r6, r6, r5, lsl #2 {}
4119 4120 4122 4123 4125 ldr.w r3, [pc, #0x77c] {}
4120 4122 4123 4125 4126 mov r11, r10 {}
4122 4123 4125 4126 4127 add r2, pc {}
4123 4125 4126 4127 4129 str r1, [sp, #0x28] {}
4125 4126 4127 4129 4130 add r3, pc {}
4126 4127 4129 4130 4132 str r2, [sp, #0x40] {}
4127 4129 4130 4132 4134 str r3, [sp, #0x20] {}
4129 4130 4132 4134 4135 movw r3, #0xaaab {}
4130 4132 4134 4135 4136 movt r3, #0xaaaa {}
4132 4134 4135 4136 4138 str r3, [sp, #0x4c] {}
4134 4135 4136 4138 4140 ldr r3, [r6], #4 {}
4135 4136 4140 4141 4143 ldr r4, [r3, #0x14] {load-use}
4136 4140 4143 4144 4145 cmp r4, r9 {load-use}
4140 4143 4144 4145 4146 beq #0x4006e98 {}
4143 4144 4145 4146 4147 ands r10, r7, #2 {}
4144 4145 4146 4147 4148 beq #0x4006e0e {bmispred}
4147 4148 4149 4150 4152 ldrb.w r3, [r4, #0x195] {}
4148 4149 4152 4153 4154 lsls r2, r3, #0x1a {load-use}
4149 4152 4153 4154 4155 bmi #0x4006e98 {}
4152 4153 4154 4155 4157 ldr r3, [sp, #0x20] {}
4153 4154 4157 4158 4160 ldr r3, [r3] {load-use}
4154 4157 4160 4161 4162 lsls r3, r3, #0x1c {load-use}
4157 4160 4161 4162 4163 bmi #0x4006ea6 {}
4160 4161 4162 4163 4165 ldr.w r1, [r4, #0x178] {}
4161 4162 4165 4166 4167 cmp r1, #0 {load-use}
4162 4165 4166 4167 4168 beq #0x4006e98 {}
4165 4166 4167 4168 4170 ldr r2, [r4, #0x38] {}
4166 4167 4168 4170 4171 movs r0, #0 {}
4167 4168 4170 4171 4173 ldr r3, [r4, #0x34] {}
4168 4170 4171 4173 4175 ldr.w lr, [r4, #0x184] {}
4170 4171 4173 4175 4177 ldr r2, [r2, #4] {}
4171 4173 4175 4177 4179 ldr r3, [r3, #4] {}
4173 4175 4177 4179 4181 str r0, [sp, #0x60] {}
4175 4177 4179 4181 4183 str r2, [sp, #0x38] {}
4177 4179 4181 4183 4185 str r3, [sp, #0x24] {}
4179 4181 4183 4185 4187 str r0, [sp, #0x64] {}
4181 4183 4185 4187 4188 cmp.w lr, #0 {}
4183 4185 4187 4188 4189 beq #0x4006ed2 {}
4185 4187 4188 4189 4191 ldr.w r3, [r4, #0x180] {}
4187 4188 4189 4191 4193 ldr.w r0, [r4, #0x17c] {}
4188 4189 4191 4193 4195 ldr r2, [sp, #0x28] {}
4189 4191 4193 4195 4197 str r3, [sp, #0x2c] {}
4191 4193 4195 4197 4199 ldr r3, [sp, #0x30] {}
4193 4195 4197 4199 4200 and r12, r2, #0x1f {}
4195 4197 4199 4200 4201 ands r0, r3 {}
4197 4199 4200 4201 4203 ldr r3, [sp, #0x2c] {}
4199 4200 4201 4203 4205 ldr.w r0, [lr, r0, lsl #2] {}
4200 4201 4203 4205 4206 lsr.w r3, r2, r3 {}
4201 4203 4205 4206 4207 and r3, r3, #0x1f {}
4203 4205 4206 4207 4208 mov r2, r12 {}
4205 4206 4207 4208 4209 lsr.w r3, r0, r3 {}
4206 4207 4208 4209 4210 lsrs r0, r2 {}
4207 4208 4209 4210 4211 ands r3, r0 {}
4208 4209 4210 4211 4212 lsls r0, r3, #0x1f {}
4209 4210 4211 4212 4213 bmi.w #0x4007180 {}
4210 4211 4212 4213 4214 mov.w r8, #1 {}
4211 4212 4213 4214 4216 ldr r3, [sp, #0x9c] {}
4212 4213 4216 4217 4218 cmp r3, #0 {load-use}
4213 4216 4217 4218 4219 ite eq {}
4216 4217 4218 4219 4220 moveq r3, #0 {}
4217 4218 4219 4220 4221 andne r3, r8, #1 {}
4218 4219 4220 4221 4222 cbz r3, #0x4006e98 {}
4219 4220 4221 4222 4224 ldr r3, [sp, #0x9c] {}
4220 4221 4224 4225 4227 ldr r0, [r3, #0xc] {load-use}
4221 4224 4227 4228 4229 cbz r0, #0x4006e98 {load-use}
4224 4227 4228 4229 4230 adds r5, #1 {}
4227 4228 4229 4230 4231 cmp r11, r5 {}
4228 4229 4230 4231 4232 bhi #0x4006df6 {bmispred}
4231 4232 4233 4234 4236 ldr r3, [r6], #4 {}
4232 4233 4236 4237 4239 ldr r4, [r3, #0x14] {load-use}
4233 4236 4239 4240 4241 cmp r4, r9 {load-use}
4236 4239 4240 4241 4242 beq #0x4006e98 {}
4239 4240 4241 4242 4243 ands r10, r7, #2 {}
4240 4241 4242 4243 4244 beq #0x4006e0e {bmispred}
4243 4244 4245 4246 4248 ldrb.w r3, [r4, #0x195] {}
4244 4245 4248 4249 4250 lsls r2, r3, #0x1a {load-use}
4245 4248 4249 4250 4251 bmi #0x4006e98 {}
4248 4249 4250 4251 4253 ldr r3, [sp, #0x20] {}
4249 4250 4253 4254 4256 ldr r3, [r3] {load-use}
4250 4253 4256 4257 4258 lsls r3, r3, #0x1c {load-use}
4253 4256 4257 4258 4259 bmi #0x4006ea6 {}
4256 4257 4258 4259 4261 ldr.w r1, [r4, #0x178] {}
4257 4258 4261 4262 4263 cmp r1, #0 {load-use}
4258 4261 4262 4263 4264 beq #0x4006e98 {}
4261 4262 4263 4264 4266 ldr r2, [r4, #0x38] {}
4262 4263 4264 4266 4267 movs r0, #0 {}
4263 4264 4266 4267 4269 ldr r3, [r4, #0x34] {}
4264 4266 4267 4269 4271 ldr.w lr, [r4, #0x184] {}
4266 4267 4269 4271 4273 ldr r2, [r2, #4] {}
4267 4269 4271 4273 4275 ldr r3, [r3, #4] {}
4269 4271 4273 4275 4277 str r0, [sp, #0x60] {}
4271 4273 4275 4277 4279 str r2, [sp, #0x38] {}
4273 4275 4277 4279 4281 str r3, [sp, #0x24] {}
4275 4277 4279 4281 4283 str r0, [sp, #0x64] {}
4277 4279 4281 4283 4284 cmp.w lr, #0 {}
4279 4281 4283 4284 4285 beq #0x4006ed2 {}
4281 4283 4284 4285 4287 ldr.w r3, [r4, #0x180] {}
4283 4284 4285 4287 4289 ldr.w r0, [r4, #0x17c] {}
4284 4285 4287 4289 4291 ldr r2, [sp, #0x28] {}
4285 4287 4289 4291 4293 str r3, [sp, #0x2c] {}
4287 4289 4291 4293 4295 ldr r3, [sp, #0x30] {}
4289 4291 4293 4295 4296 and r12, r2, #0x1f {}
4291 4293 4295 4296 4297 ands r0, r3 {}
4293 4295 4296 4297 4299 ldr r3, [sp, #0x2c] {}
4295 4296 4297 4299 4301 ldr.w r0, [lr, r0, lsl #2] {}
4296 4297 4299 4301 4302 lsr.w r3, r2, r3 {}
4297 4299 4301 4302 4303 and r3, r3, #0x1f {}
4299 4301 4302 4303 4304 mov r2, r12 {}
4301 4302 4303 4304 4305 lsr.w r3, r0, r3 {}
4302 4303 4304 4305 4306 lsrs r0, r2 {}
4303 4304 4305 4306 4307 ands r3, r0 {}
4304 4305 4306 4307 4308 lsls r0, r3, #0x1f {}
4305 4306 4307 4308 4309 bmi.w #0x4007180 {bmispred}
4308 4309 4310 4311 4313 ldr.w r8, [sp, #0x28] {}
4309 4310 4313 4314 4315 mov r0, r8 {load-use}
4310 4313 4314 4315 4316 bl #0x40135a4 {bmispred}
4315 4316 4317 4318 4319 cmp r1, #0 {}
4316 4317 4318 4319 4320 beq #0x401359a {}
4317 4318 4319 4320 4322 push.w {r0, r1, lr} {}
4318 4319 4320 4322 4323 bl #0x4013348 {bmispred}
4321 4322 4323 4324 4325 subs r2, r1, #1 {}
4322 4323 4324 4325 4326 it eq {}
4323 4324 4325 4326 4327 bxeq lr {}
4324 4325 4326 4327 4328 blo.w #0x401359a {}
4325 4326 4327 4328 4329 cmp r0, r1 {}
4326 4327 4328 4329 4330 bls.w #0x4013584 {}
4327 4328 4329 4330 4331 tst r1, r2 {}
4328 4329 4330 4331 4332 beq.w #0x401358c {}
4329 4330 4331 4332 4333 clz r3, r0 {}
4330 4331 4332 4333 4334 clz r2, r1 {}
4331 4332 4333 4334 4335 sub.w r3, r2, r3 {}
4332 4333 4334 4335 4336 rsb.w r3, r3, #0x1f {}
4333 4334 4335 4336 4337 adr r2, #0x10 {}
4334 4335 4336 4337 4338 add.w r3, r2, r3, lsl #4 {}
4335 4336 4337 4338 4339 mov.w r2, #0 {}
4336 4337 4338 4339 4340 mov pc, r3 {bmispred}
4339 4340 4341 4342 4343 cmp.w r0, r1, lsl #29 {}
4340 4341 4342 4343 4344 nop  {}
4341 4342 4343 4344 4345 adc.w r2, r2, r2 {}
4342 4343 4344 4345 4346 it hs {}
4343 4344 4345 4346 4347 subhs.w r0, r0, r1, lsl #29 {}
4344 4345 4346 4347 4348 cmp.w r0, r1, lsl #28 {}
4345 4346 4347 4348 4349 nop  {}
4346 4347 4348 4349 4350 adc.w r2, r2, r2 {}
4347 4348 4349 4350 4351 it hs {}
4348 4349 4350 4351 4352 subhs.w r0, r0, r1, lsl #28 {}
4349 4350 4351 4352 4353 cmp.w r0, r1, lsl #27 {}
4350 4351 4352 4353 4354 nop  {}
4351 4352 4353 4354 4355 adc.w r2, r2, r2 {}
4352 4353 4354 4355 4356 it hs {}
4353 4354 4355 4356 4357 subhs.w r0, r0, r1, lsl #27 {}
4354 4355 4356 4357 4358 cmp.w r0, r1, lsl #26 {}
4355 4356 4357 4358 4359 nop  {}
4356 4357 4358 4359 4360 adc.w r2, r2, r2 {}
4357 4358 4359 4360 4361 it hs {}
4358 4359 4360 4361 4362 subhs.w r0, r0, r1, lsl #26 {}
4359 4360 4361 4362 4363 cmp.w r0, r1, lsl #25 {}
4360 4361 4362 4363 4364 nop  {}
4361 4362 4363 4364 4365 adc.w r2, r2, r2 {}
4362 4363 4364 4365 4366 it hs {}
4363 4364 4365 4366 4367 subhs.w r0, r0, r1, lsl #25 {}
4364 4365 4366 4367 4368 cmp.w r0, r1, lsl #24 {}
4365 4366 4367 4368 4369 nop  {}
4366 4367 4368 4369 4370 adc.w r2, r2, r2 {}
4367 4368 4369 4370 4371 it hs {}
4368 4369 4370 4371 4372 subhs.w r0, r0, r1, lsl #24 {}
4369 4370 4371 4372 4373 cmp.w r0, r1, lsl #23 {}
4370 4371 4372 4373 4374 nop  {}
4371 4372 4373 4374 4375 adc.w r2, r2, r2 {}
4372 4373 4374 4375 4376 it hs {}
4373 4374 4375 4376 4377 subhs.w r0, r0, r1, lsl #23 {}
4374 4375 4376 4377 4378 cmp.w r0, r1, lsl #22 {}
4375 4376 4377 4378 4379 nop  {}
4376 4377 4378 4379 4380 adc.w r2, r2, r2 {}
4377 4378 4379 4380 4381 it hs {}
4378 4379 4380 4381 4382 subhs.w r0, r0, r1, lsl #22 {}
4379 4380 4381 4382 4383 cmp.w r0, r1, lsl #21 {}
4380 4381 4382 4383 4384 nop  {}
4381 4382 4383 4384 4385 adc.w r2, r2, r2 {}
4382 4383 4384 4385 4386 it hs {}
4383 4384 4385 4386 4387 subhs.w r0, r0, r1, lsl #21 {}
4384 4385 4386 4387 4388 cmp.w r0, r1, lsl #20 {}
4385 4386 4387 4388 4389 nop  {}
4386 4387 4388 4389 4390 adc.w r2, r2, r2 {}
4387 4388 4389 4390 4391 it hs {}
4388 4389 4390 4391 4392 subhs.w r0, r0, r1, lsl #20 {}
4389 4390 4391 4392 4393 cmp.w r0, r1, lsl #19 {}
4390 4391 4392 4393 4394 nop  {}
4391 4392 4393 4394 4395 adc.w r2, r2, r2 {}
4392 4393 4394 4395 4396 it hs {}
4393 4394 4395 4396 4397 subhs.w r0, r0, r1, lsl #19 {}
4394 4395 4396 4397 4398 cmp.w r0, r1, lsl #18 {}
4395 4396 4397 4398 4399 nop  {}
4396 4397 4398 4399 4400 adc.w r2, r2, r2 {}
4397 4398 4399 4400 4401 it hs {}
4398 4399 4400 4401 4402 subhs.w r0, r0, r1, lsl #18 {}
4399 4400 4401 4402 4403 cmp.w r0, r1, lsl #17 {}
4400 4401 4402 4403 4404 nop  {}
4401 4402 4403 4404 4405 adc.w r2, r2, r2 {}
4402 4403 4404 4405 4406 it hs {}
4403 4404 4405 4406 4407 subhs.w r0, r0, r1, lsl #17 {}
4404 4405 4406 4407 4408 cmp.w r0, r1, lsl #16 {}
4405 4406 4407 4408 4409 nop  {}
4406 4407 4408 4409 4410 adc.w r2, r2, r2 {}
4407 4408 4409 4410 4411 it hs {}
4408 4409 4410 4411 4412 subhs.w r0, r0, r1, lsl #16 {}
4409 4410 4411 4412 4413 cmp.w r0, r1, lsl #15 {}
4410 4411 4412 4413 4414 nop  {}
4411 4412 4413 4414 4415 adc.w r2, r2, r2 {}
4412 4413 4414 4415 4416 it hs {}
4413 4414 4415 4416 4417 subhs.w r0, r0, r1, lsl #15 {}
4414 4415 4416 4417 4418 cmp.w r0, r1, lsl #14 {}
4415 4416 4417 4418 4419 nop  {}
4416 4417 4418 4419 4420 adc.w r2, r2, r2 {}
4417 4418 4419 4420 4421 it hs {}
4418 4419 4420 4421 4422 subhs.w r0, r0, r1, lsl #14 {}
4419 4420 4421 4422 4423 cmp.w r0, r1, lsl #13 {}
4420 4421 4422 4423 4424 nop  {}
4421 4422 4423 4424 4425 adc.w r2, r2, r2 {}
4422 4423 4424 4425 4426 it hs {}
4423 4424 4425 4426 4427 subhs.w r0, r0, r1, lsl #13 {}
4424 4425 4426 4427 4428 cmp.w r0, r1, lsl #12 {}
4425 4426 4427 4428 4429 nop  {}
4426 4427 4428 4429 4430 adc.w r2, r2, r2 {}
4427 4428 4429 4430 4431 it hs {}
4428 4429 4430 4431 4432 subhs.w r0, r0, r1, lsl #12 {}
4429 4430 4431 4432 4433 cmp.w r0, r1, lsl #11 {}
4430 4431 4432 4433 4434 nop  {}
4431 4432 4433 4434 4435 adc.w r2, r2, r2 {}
4432 4433 4434 4435 4436 it hs {}
4433 4434 4435 4436 4437 subhs.w r0, r0, r1, lsl #11 {}
4434 4435 4436 4437 4438 cmp.w r0, r1, lsl #10 {}
4435 4436 4437 4438 4439 nop  {}
4436 4437 4438 4439 4440 adc.w r2, r2, r2 {}
4437 4438 4439 4440 4441 it hs {}
4438 4439 4440 4441 4442 subhs.w r0, r0, r1, lsl #10 {}
4439 4440 4441 4442 4443 cmp.w r0, r1, lsl #9 {}
4440 4441 4442 4443 4444 nop  {}
4441 4442 4443 4444 4445 adc.w r2, r2, r2 {}
4442 4443 4444 4445 4446 it hs {}
4443 4444 4445 4446 4447 subhs.w r0, r0, r1, lsl #9 {}
4444 4445 4446 4447 4448 cmp.w r0, r1, lsl #8 {}
4445 4446 4447 4448 4449 nop  {}
4446 4447 4448 4449 4450 adc.w r2, r2, r2 {}
4447 4448 4449 4450 4451 it hs {}
4448 4449 4450 4451 4452 subhs.w r0, r0, r1, lsl #8 {}
4449 4450 4451 4452 4453 cmp.w r0, r1, lsl #7 {}
4450 4451 4452 4453 4454 nop  {}
4451 4452 4453 4454 4455 adc.w r2, r2, r2 {}
4452 4453 4454 4455 4456 it hs {}
4453 4454 4455 4456 4457 subhs.w r0, r0, r1, lsl #7 {}
4454 4455 4456 4457 4458 cmp.w r0, r1, lsl #6 {}
4455 4456 4457 4458 4459 nop  {}
4456 4457 4458 4459 4460 adc.w r2, r2, r2 {}
4457 4458 4459 4460 4461 it hs {}
4458 4459 4460 4461 4462 subhs.w r0, r0, r1, lsl #6 {}
4459 4460 4461 4462 4463 cmp.w r0, r1, lsl #5 {}
4460 4461 4462 4463 4464 nop  {}
4461 4462 4463 4464 4465 adc.w r2, r2, r2 {}
4462 4463 4464 4465 4466 it hs {}
4463 4464 4465 4466 4467 subhs.w r0, r0, r1, lsl #5 {}
4464 4465 4466 4467 4468 cmp.w r0, r1, lsl #4 {}
4465 4466 4467 4468 4469 nop  {}
4466 4467 4468 4469 4470 adc.w r2, r2, r2 {}
4467 4468 4469 4470 4471 it hs {}
4468 4469 4470 4471 4472 subhs.w r0, r0, r1, lsl #4 {}
4469 4470 4471 4472 4473 cmp.w r0, r1, lsl #3 {}
4470 4471 4472 4473 4474 nop  {}
4471 4472 4473 4474 4475 adc.w r2, r2, r2 {}
4472 4473 4474 4475 4476 it hs {}
4473 4474 4475 4476 4477 subhs.w r0, r0, r1, lsl #3 {}
4474 4475 4476 4477 4478 cmp.w r0, r1, lsl #2 {}
4475 4476 4477 4478 4479 nop  {}
4476 4477 4478 4479 4480 adc.w r2, r2, r2 {}
4477 4478 4479 4480 4481 it hs {}
4478 4479 4480 4481 4482 subhs.w r0, r0, r1, lsl #2 {}
4479 4480 4481 4482 4483 cmp.w r0, r1, lsl #1 {}
4480 4481 4482 4483 4484 nop  {}
4481 4482 4483 4484 4485 adc.w r2, r2, r2 {}
4482 4483 4484 4485 4486 it hs {}
4483 4484 4485 4486 4487 subhs.w r0, r0, r1, lsl #1 {}
4484 4485 4486 4487 4488 cmp.w r0, r1 {}
4485 4486 4487 4488 4489 nop  {}
4486 4487 4488 4489 4490 adc.w r2, r2, r2 {}
4487 4488 4489 4490 4491 it hs {}
4488 4489 4490 4491 4492 subhs.w r0, r0, r1 {}
4489 4490 4491 4492 4493 mov r0, r2 {}
4490 4491 4492 4493 4494 bx lr {}
4491 4492 4493 4494 4496 pop.w {r1, r2, lr} {}
4492 4493 4494 4496 4497 mul r3, r2, r0 {}
4493 4494 4496 4497 4498 sub.w r1, r1, r3 {}
4494 4496 4497 4498 4499 bx lr {bmispred}
4498 4499 4500 4501 4503 ldr.w r3, [r4, #0x188] {}
4499 4500 4503 4504 4506 ldr.w r3, [r3, r1, lsl #2] {load-use}
4500 4503 4506 4507 4508 cmp r3, #0 {load-use}
4503 4506 4507 4508 4509 beq.w #0x4006e74 {}
4506 4507 4508 4509 4511 ldr.w r2, [r4, #0x18c] {}
4507 4508 4509 4511 4512 add r1, sp, #0x60 {}
4508 4509 4511 4512 4514 str.w r10, [sp, #0x54] {}
4509 4511 4512 4514 4515 add.w r3, r2, r3, lsl #2 {}
4511 4512 4514 4515 4517 str r1, [sp, #0x2c] {}
4512 4514 4515 4517 4519 str r6, [sp, #0x58] {}
4514 4515 4517 4519 4520 add r1, sp, #0x64 {}
4515 4517 4519 4520 4522 str r5, [sp, #0x98] {}
4517 4519 4520 4522 4523 mov r6, r3 {}
4519 4520 4522 4523 4525 str.w r9, [sp, #0xa4] {}
4520 4522 4523 4525 4526 mov r5, r4 {}
4522 4523 4525 4526 4528 str.w r11, [sp, #0x5c] {}
4523 4525 4526 4528 4530 str r1, [sp, #0x50] {}
4525 4526 4528 4530 4532 ldr.w r10, [sp, #0x3c] {}
4526 4528 4530 4532 4534 ldr.w r9, [sp, #0x38] {}
4528 4530 4532 4534 4536 ldr.w r11, [sp, #0x34] {}
4530 4532 4534 4536 4537 b #0x40071d4 {bmispred}
4535 4536 4537 4538 4540 ldr r3, [r6] {}
4536 4537 4540 4541 4542 eor.w r2, r8, r3 {load-use}
4537 4540 4541 4542 4543 lsrs r2, r2, #1 {}
4540 4541 4542 4543 4544 bne #0x40071ca {bmispred}
4543 4544 4545 4546 4547 lsls r1, r3, #0x1f {}
4544 4545 4546 4547 4548 add.w r6, r6, #4 {}
4545 4546 4547 4548 4549 bmi.w #0x4007382 {}
4546 4547 4548 4549 4551 ldr r3, [r6] {}
4547 4548 4551 4552 4553 eor.w r2, r8, r3 {load-use}
4548 4551 4552 4553 4554 lsrs r2, r2, #1 {}
4551 4552 4553 4554 4555 bne #0x40071ca {bmispred}
4554 4555 4556 4557 4558 lsls r1, r3, #0x1f {}
4555 4556 4557 4558 4559 add.w r6, r6, #4 {}
4556 4557 4558 4559 4560 bmi.w #0x4007382 {}
4557 4558 4559 4560 4562 ldr r3, [r6] {}
4558 4559 4562 4563 4564 eor.w r2, r8, r3 {load-use}
4559 4562 4563 4564 4565 lsrs r2, r2, #1 {}
4562 4563 4564 4565 4566 bne #0x40071ca {}
4563 4564 4565 4566 4567 lsls r1, r3, #0x1f {}
4564 4565 4566 4567 4568 add.w r6, r6, #4 {}
4565 4566 4567 4568 4569 bmi.w #0x4007382 {bmispred}
4568 4569 4570 4571 4572 mov r4, r5 {}
4569 4570 4571 4572 4574 ldr.w r10, [sp, #0x54] {}
4570 4571 4572 4574 4576 ldr r6, [sp, #0x58] {}
4571 4572 4574 4576 4578 ldr r5, [sp, #0x98] {}
4572 4574 4576 4578 4580 ldr.w r9, [sp, #0xa4] {}
4574 4576 4578 4580 4582 ldr.w r11, [sp, #0x5c] {}
4576 4578 4580 4582 4583 b #0x400727c {bmispred}
4581 4582 4583 4584 4586 ldr r3, [sp, #0x60] {}
4582 4583 4586 4587 4588 cmp r3, #1 {load-use}
4583 4586 4587 4588 4589 bne.w #0x4006e74 {bmispred}
4588 4589 4590 4591 4592 mov.w r8, #1 {}
4589 4590 4591 4592 4594 ldr r3, [sp, #0x9c] {}
4590 4591 4594 4595 4596 cmp r3, #0 {load-use}
4591 4594 4595 4596 4597 ite eq {}
4594 4595 4596 4597 4598 moveq r3, #0 {}
4595 4596 4597 4598 4599 andne r3, r8, #1 {}
4596 4597 4598 4599 4600 cbz r3, #0x4006e98 {}
4597 4598 4599 4600 4602 ldr r3, [sp, #0x9c] {}
4598 4599 4602 4603 4605 ldr r0, [r3, #0xc] {load-use}
4599 4602 4605 4606 4607 cbz r0, #0x4006e98 {load-use}
4602 4605 4606 4607 4608 adds r5, #1 {}
4605 4606 4607 4608 4609 cmp r11, r5 {}
4606 4607 4608 4609 4610 bhi #0x4006df6 {bmispred}
4609 4610 4611 4612 4614 ldr r3, [r6], #4 {}
4610 4611 4614 4615 4617 ldr r4, [r3, #0x14] {load-use}
4611 4614 4617 4618 4619 cmp r4, r9 {load-use}
4614 4617 4618 4619 4620 beq #0x4006e98 {}
4617 4618 4619 4620 4621 ands r10, r7, #2 {}
4618 4619 4620 4621 4622 beq #0x4006e0e {bmispred}
4621 4622 4623 4624 4626 ldrb.w r3, [r4, #0x195] {}
4622 4623 4626 4627 4628 lsls r2, r3, #0x1a {load-use}
4623 4626 4627 4628 4629 bmi #0x4006e98 {}
4626 4627 4628 4629 4631 ldr r3, [sp, #0x20] {}
4627 4628 4631 4632 4634 ldr r3, [r3] {load-use}
4628 4631 4634 4635 4636 lsls r3, r3, #0x1c {load-use}
4631 4634 4635 4636 4637 bmi #0x4006ea6 {}
4634 4635 4636 4637 4639 ldr.w r1, [r4, #0x178] {}
4635 4636 4639 4640 4641 cmp r1, #0 {load-use}
4636 4639 4640 4641 4642 beq #0x4006e98 {}
4639 4640 4641 4642 4644 ldr r2, [r4, #0x38] {}
4640 4641 4642 4644 4645 movs r0, #0 {}
4641 4642 4644 4645 4647 ldr r3, [r4, #0x34] {}
4642 4644 4645 4647 4649 ldr.w lr, [r4, #0x184] {}
4644 4645 4647 4649 4651 ldr r2, [r2, #4] {}
4645 4647 4649 4651 4653 ldr r3, [r3, #4] {}
4647 4649 4651 4653 4655 str r0, [sp, #0x60] {}
4649 4651 4653 4655 4657 str r2, [sp, #0x38] {}
4651 4653 4655 4657 4659 str r3, [sp, #0x24] {}
4653 4655 4657 4659 4661 str r0, [sp, #0x64] {}
4655 4657 4659 4661 4662 cmp.w lr, #0 {}
4657 4659 4661 4662 4663 beq #0x4006ed2 {}
4659 4661 4662 4663 4665 ldr.w r3, [r4, #0x180] {}
4661 4662 4663 4665 4667 ldr.w r0, [r4, #0x17c] {}
4662 4663 4665 4667 4669 ldr r2, [sp, #0x28] {}
4663 4665 4667 4669 4671 str r3, [sp, #0x2c] {}
4665 4667 4669 4671 4673 ldr r3, [sp, #0x30] {}
4667 4669 4671 4673 4674 and r12, r2, #0x1f {}
4669 4671 4673 4674 4675 ands r0, r3 {}
4671 4673 4674 4675 4677 ldr r3, [sp, #0x2c] {}
4673 4674 4675 4677 4679 ldr.w r0, [lr, r0, lsl #2] {}
4674 4675 4677 4679 4680 lsr.w r3, r2, r3 {}
4675 4677 4679 4680 4681 and r3, r3, #0x1f {}
4677 4679 4680 4681 4682 mov r2, r12 {}
4679 4680 4681 4682 4683 lsr.w r3, r0, r3 {}
4680 4681 4682 4683 4684 lsrs r0, r2 {}
4681 4682 4683 4684 4685 ands r3, r0 {}
4682 4683 4684 4685 4686 lsls r0, r3, #0x1f {}
4683 4684 4685 4686 4687 bmi.w #0x4007180 {bmispred}
4686 4687 4688 4689 4691 ldr.w r8, [sp, #0x28] {}
4687 4688 4691 4692 4693 mov r0, r8 {load-use}
4688 4691 4692 4693 4694 bl #0x40135a4 {}
4691 4692 4693 4694 4695 cmp r1, #0 {}
4692 4693 4694 4695 4696 beq #0x401359a {}
4693 4694 4695 4696 4698 push.w {r0, r1, lr} {}
4694 4695 4696 4698 4699 bl #0x4013348 {}
4695 4696 4698 4699 4700 subs r2, r1, #1 {}
4696 4698 4699 4700 4701 it eq {}
4698 4699 4700 4701 4702 bxeq lr {}
4699 4700 4701 4702 4703 blo.w #0x401359a {}
4700 4701 4702 4703 4704 cmp r0, r1 {}
4701 4702 4703 4704 4705 bls.w #0x4013584 {}
4702 4703 4704 4705 4706 tst r1, r2 {}
4703 4704 4705 4706 4707 beq.w #0x401358c {}
4704 4705 4706 4707 4708 clz r3, r0 {}
4705 4706 4707 4708 4709 clz r2, r1 {}
4706 4707 4708 4709 4710 sub.w r3, r2, r3 {}
4707 4708 4709 4710 4711 rsb.w r3, r3, #0x1f {}
4708 4709 4710 4711 4712 adr r2, #0x10 {}
4709 4710 4711 4712 4713 add.w r3, r2, r3, lsl #4 {}
4710 4711 4712 4713 4714 mov.w r2, #0 {}
4711 4712 4713 4714 4715 mov pc, r3 {bmispred}
4714 4715 4716 4717 4718 cmp.w r0, r1, lsl #20 {}
4715 4716 4717 4718 4719 nop  {}
4716 4717 4718 4719 4720 adc.w r2, r2, r2 {}
4717 4718 4719 4720 4721 it hs {}
4718 4719 4720 4721 4722 subhs.w r0, r0, r1, lsl #20 {}
4719 4720 4721 4722 4723 cmp.w r0, r1, lsl #19 {}
4720 4721 4722 4723 4724 nop  {}
4721 4722 4723 4724 4725 adc.w r2, r2, r2 {}
4722 4723 4724 4725 4726 it hs {}
4723 4724 4725 4726 4727 subhs.w r0, r0, r1, lsl #19 {}
4724 4725 4726 4727 4728 cmp.w r0, r1, lsl #18 {}
4725 4726 4727 4728 4729 nop  {}
4726 4727 4728 4729 4730 adc.w r2, r2, r2 {}
4727 4728 4729 4730 4731 it hs {}
4728 4729 4730 4731 4732 subhs.w r0, r0, r1, lsl #18 {}
4729 4730 4731 4732 4733 cmp.w r0, r1, lsl #17 {}
4730 4731 4732 4733 4734 nop  {}
4731 4732 4733 4734 4735 adc.w r2, r2, r2 {}
4732 4733 4734 4735 4736 it hs {}
4733 4734 4735 4736 4737 subhs.w r0, r0, r1, lsl #17 {}
4734 4735 4736 4737 4738 cmp.w r0, r1, lsl #16 {}
4735 4736 4737 4738 4739 nop  {}
4736 4737 4738 4739 4740 adc.w r2, r2, r2 {}
4737 4738 4739 4740 4741 it hs {}
4738 4739 4740 4741 4742 subhs.w r0, r0, r1, lsl #16 {}
4739 4740 4741 4742 4743 cmp.w r0, r1, lsl #15 {}
4740 4741 4742 4743 4744 nop  {}
4741 4742 4743 4744 4745 adc.w r2, r2, r2 {}
4742 4743 4744 4745 4746 it hs {}
4743 4744 4745 4746 4747 subhs.w r0, r0, r1, lsl #15 {}
4744 4745 4746 4747 4748 cmp.w r0, r1, lsl #14 {}
4745 4746 4747 4748 4749 nop  {}
4746 4747 4748 4749 4750 adc.w r2, r2, r2 {}
4747 4748 4749 4750 4751 it hs {}
4748 4749 4750 4751 4752 subhs.w r0, r0, r1, lsl #14 {}
4749 4750 4751 4752 4753 cmp.w r0, r1, lsl #13 {}
4750 4751 4752 4753 4754 nop  {}
4751 4752 4753 4754 4755 adc.w r2, r2, r2 {}
4752 4753 4754 4755 4756 it hs {}
4753 4754 4755 4756 4757 subhs.w r0, r0, r1, lsl #13 {}
4754 4755 4756 4757 4758 cmp.w r0, r1, lsl #12 {}
4755 4756 4757 4758 4759 nop  {}
4756 4757 4758 4759 4760 adc.w r2, r2, r2 {}
4757 4758 4759 4760 4761 it hs {}
4758 4759 4760 4761 4762 subhs.w r0, r0, r1, lsl #12 {}
4759 4760 4761 4762 4763 cmp.w r0, r1, lsl #11 {}
4760 4761 4762 4763 4764 nop  {}
4761 4762 4763 4764 4765 adc.w r2, r2, r2 {}
4762 4763 4764 4765 4766 it hs {}
4763 4764 4765 4766 4767 subhs.w r0, r0, r1, lsl #11 {}
4764 4765 4766 4767 4768 cmp.w r0, r1, lsl #10 {}
4765 4766 4767 4768 4769 nop  {}
4766 4767 4768 4769 4770 adc.w r2, r2, r2 {}
4767 4768 4769 4770 4771 it hs {}
4768 4769 4770 4771 4772 subhs.w r0, r0, r1, lsl #10 {}
4769 4770 4771 4772 4773 cmp.w r0, r1, lsl #9 {}
4770 4771 4772 4773 4774 nop  {}
4771 4772 4773 4774 4775 adc.w r2, r2, r2 {}
4772 4773 4774 4775 4776 it hs {}
4773 4774 4775 4776 4777 subhs.w r0, r0, r1, lsl #9 {}
4774 4775 4776 4777 4778 cmp.w r0, r1, lsl #8 {}
4775 4776 4777 4778 4779 nop  {}
4776 4777 4778 4779 4780 adc.w r2, r2, r2 {}
4777 4778 4779 4780 4781 it hs {}
4778 4779 4780 4781 4782 subhs.w r0, r0, r1, lsl #8 {}
4779 4780 4781 4782 4783 cmp.w r0, r1, lsl #7 {}
4780 4781 4782 4783 4784 nop  {}
4781 4782 4783 4784 4785 adc.w r2, r2, r2 {}
4782 4783 4784 4785 4786 it hs {}
4783 4784 4785 4786 4787 subhs.w r0, r0, r1, lsl #7 {}
4784 4785 4786 4787 4788 cmp.w r0, r1, lsl #6 {}
4785 4786 4787 4788 4789 nop  {}
4786 4787 4788 4789 4790 adc.w r2, r2, r2 {}
4787 4788 4789 4790 4791 it hs {}
4788 4789 4790 4791 4792 subhs.w r0, r0, r1, lsl #6 {}
4789 4790 4791 4792 4793 cmp.w r0, r1, lsl #5 {}
4790 4791 4792 4793 4794 nop  {}
4791 4792 4793 4794 4795 adc.w r2, r2, r2 {}
4792 4793 4794 4795 4796 it hs {}
4793 4794 4795 4796 4797 subhs.w r0, r0, r1, lsl #5 {}
4794 4795 4796 4797 4798 cmp.w r0, r1, lsl #4 {}
4795 4796 4797 4798 4799 nop  {}
4796 4797 4798 4799 4800 adc.w r2, r2, r2 {}
4797 4798 4799 4800 4801 it hs {}
4798 4799 4800 4801 4802 subhs.w r0, r0, r1, lsl #4 {}
4799 4800 4801 4802 4803 cmp.w r0, r1, lsl #3 {}
4800 4801 4802 4803 4804 nop  {}
4801 4802 4803 4804 4805 adc.w r2, r2, r2 {}
4802 4803 4804 4805 4806 it hs {}
4803 4804 4805 4806 4807 subhs.w r0, r0, r1, lsl #3 {}
4804 4805 4806 4807 4808 cmp.w r0, r1, lsl #2 {}
4805 4806 4807 4808 4809 nop  {}
4806 4807 4808 4809 4810 adc.w r2, r2, r2 {}
4807 4808 4809 4810 4811 it hs {}
4808 4809 4810 4811 4812 subhs.w r0, r0, r1, lsl #2 {}
4809 4810 4811 4812 4813 cmp.w r0, r1, lsl #1 {}
4810 4811 4812 4813 4814 nop  {}
4811 4812 4813 4814 4815 adc.w r2, r2, r2 {}
4812 4813 4814 4815 4816 it hs {}
4813 4814 4815 4816 4817 subhs.w r0, r0, r1, lsl #1 {}
4814 4815 4816 4817 4818 cmp.w r0, r1 {}
4815 4816 4817 4818 4819 nop  {}
4816 4817 4818 4819 4820 adc.w r2, r2, r2 {}
4817 4818 4819 4820 4821 it hs {}
4818 4819 4820 4821 4822 subhs.w r0, r0, r1 {}
4819 4820 4821 4822 4823 mov r0, r2 {}
4820 4821 4822 4823 4824 bx lr {}
4821 4822 4823 4824 4826 pop.w {r1, r2, lr} {}
4822 4823 4824 4826 4827 mul r3, r2, r0 {}
4823 4824 4826 4827 4828 sub.w r1, r1, r3 {}
4824 4826 4827 4828 4829 bx lr {bmispred}
4828 4829 4830 4831 4833 ldr.w r3, [r4, #0x188] {}
4829 4830 4833 4834 4836 ldr.w r3, [r3, r1, lsl #2] {load-use}
4830 4833 4836 4837 4838 cmp r3, #0 {load-use}
4833 4836 4837 4838 4839 beq.w #0x4006e74 {}
4836 4837 4838 4839 4841 ldr.w r2, [r4, #0x18c] {}
4837 4838 4839 4841 4842 add r1, sp, #0x60 {}
4838 4839 4841 4842 4844 str.w r10, [sp, #0x54] {}
4839 4841 4842 4844 4845 add.w r3, r2, r3, lsl #2 {}
4841 4842 4844 4845 4847 str r1, [sp, #0x2c] {}
4842 4844 4845 4847 4849 str r6, [sp, #0x58] {}
4844 4845 4847 4849 4850 add r1, sp, #0x64 {}
4845 4847 4849 4850 4852 str r5, [sp, #0x98] {}
4847 4849 4850 4852 4853 mov r6, r3 {}
4849 4850 4852 4853 4855 str.w r9, [sp, #0xa4] {}
4850 4852 4853 4855 4856 mov r5, r4 {}
4852 4853 4855 4856 4858 str.w r11, [sp, #0x5c] {}
4853 4855 4856 4858 4860 str r1, [sp, #0x50] {}
4855 4856 4858 4860 4862 ldr.w r10, [sp, #0x3c] {}
4856 4858 4860 4862 4864 ldr.w r9, [sp, #0x38] {}
4858 4860 4862 4864 4866 ldr.w r11, [sp, #0x34] {}
4860 4862 4864 4866 4867 b #0x40071d4 {bmispred}
4865 4866 4867 4868 4870 ldr r3, [r6] {}
4866 4867 4870 4871 4872 eor.w r2, r8, r3 {load-use}
4867 4870 4871 4872 4873 lsrs r2, r2, #1 {}
4870 4871 4872 4873 4874 bne #0x40071ca {bmispred}
4873 4874 4875 4876 4877 lsls r1, r3, #0x1f {}
4874 4875 4876 4877 4878 add.w r6, r6, #4 {}
4875 4876 4877 4878 4879 bmi.w #0x4007382 {}
4876 4877 4878 4879 4881 ldr r3, [r6] {}
4877 4878 4881 4882 4883 eor.w r2, r8, r3 {load-use}
4878 4881 4882 4883 4884 lsrs r2, r2, #1 {}
4881 4882 4883 4884 4885 bne #0x40071ca {}
4882 4883 4884 4885 4886 lsls r1, r3, #0x1f {}
4883 4884 4885 4886 4887 add.w r6, r6, #4 {}
4884 4885 4886 4887 4888 bmi.w #0x4007382 {}
4885 4886 4887 4888 4890 ldr r3, [r6] {}
4886 4887 4890 4891 4892 eor.w r2, r8, r3 {load-use}
4887 4890 4891 4892 4893 lsrs r2, r2, #1 {}
4890 4891 4892 4893 4894 bne #0x40071ca {bmispred}
4893 4894 4895 4896 4898 ldr.w r4, [r5, #0x18c] {}
4894 4895 4896 4898 4900 ldr r2, [sp, #0x2c] {}
4895 4896 4898 4900 4901 subs r4, r6, r4 {}
4896 4898 4900 4901 4903 ldr r1, [sp, #0x50] {}
4898 4900 4901 4903 4905 ldr r0, [sp, #0x24] {}
4900 4901 4903 4905 4906 asrs r4, r4, #2 {}
4901 4903 4905 4906 4908 str r2, [sp, #0x18] {}
4903 4905 4906 4908 4910 str r1, [sp, #0x14] {}
4905 4906 4908 4910 4911 mov r1, r10 {}
4906 4908 4910 4911 4913 str r0, [sp, #0xc] {}
4908 4910 4911 4913 4914 add.w lr, r9, r4, lsl #4 {}
4910 4911 4913 4914 4916 ldr r3, [sp, #0xa0] {}
4911 4913 4914 4916 4917 mov r0, r11 {}
4913 4914 4916 4917 4919 ldr r2, [sp, #0x9c] {}
4914 4916 4917 4919 4921 str r5, [sp, #0x10] {}
4916 4917 4919 4921 4923 str r4, [sp, #8] {}
4917 4919 4921 4923 4925 str r7, [sp] {}
4919 4921 4923 4925 4927 str.w lr, [sp, #4] {}
4921 4923 4925 4927 4928 bl #0x4006c98 {bmispred}
4926 4927 4928 4929 4931 push.w {r3, r4, r5, r6, r7, r8, r9, lr} {}
4927 4928 4929 4931 4933 ldr r4, [sp, #0x24] {}
4928 4929 4931 4933 4935 ldr.w r9, [sp, #0x30] {}
4929 4931 4933 4935 4937 ldrb r5, [r4, #0xc] {}
4931 4933 4935 4937 4939 ldr r6, [r4, #4] {}
4933 4935 4937 4939 4940 and r5, r5, #0xf {}
4935 4937 4939 4940 4941 clz r6, r6 {}
4937 4939 4940 4941 4942 cmp r5, #6 {}
4939 4940 4941 4942 4943 lsr.w r6, r6, #5 {}
4940 4941 4942 4943 4944 it eq {}
4941 4942 4943 4944 4945 moveq r6, #0 {}
4942 4943 4944 4945 4946 cmp r6, #0 {}
4943 4944 4945 4946 4947 bne #0x4006d5a {}
4944 4945 4946 4947 4949 ldrh r6, [r4, #0xe] {}
4945 4946 4947 4949 4951 ldr r7, [sp, #0x20] {}
4946 4947 4949 4951 4952 cmp r6, #0 {}
4947 4949 4951 4952 4953 ite ne {}
4949 4951 4952 4953 4954 movne r7, #0 {}
4951 4952 4953 4954 4955 andeq r7, r7, #1 {}
4952 4953 4954 4955 4956 cmp r7, #0 {}
4953 4954 4955 4956 4957 bne #0x4006d5a {}
4954 4955 4956 4957 4958 movw r6, #0x467 {}
4955 4956 4957 4958 4959 asr.w r5, r6, r5 {}
4956 4957 4958 4959 4960 lsls r5, r5, #0x1f {}
4957 4958 4959 4960 4961 bpl #0x4006d5a {}
4958 4959 4960 4961 4962 mov r6, r3 {}
4959 4960 4961 4962 4963 mov r3, r1 {}
4960 4961 4962 4963 4964 cmp r4, r3 {}
4961 4962 4963 4964 4965 mov r5, r2 {}
4962 4963 4964 4965 4966 mov r1, r0 {}
4963 4964 4965 4966 4967 beq #0x4006cf4 {bmispred}
4966 4967 4968 4969 4971 ldr.w r3, [r9, #0x1a4] {}
4967 4968 4969 4971 4972 cbz r5, #0x4006d2e {}
4968 4969 4971 4972 4973 cmp r3, #0 {}
4969 4971 4972 4973 4974 beq #0x4006d6e {}
4971 4972 4973 4974 4976 ldr r2, [sp, #0x28] {}
4972 4973 4974 4976 4978 ldr r1, [r5, #4] {}
4973 4974 4976 4978 4980 ldrh.w r8, [r3, r2, lsl #1] {}
4974 4976 4978 4980 4982 ldr.w r2, [r9, #0x170] {}
4976 4978 4980 4982 4983 ubfx r3, r8, #0, #0xf {}
4978 4980 4982 4983 4984 lsls r3, r3, #4 {}
4980 4982 4983 4984 4985 adds r0, r2, r3 {}
4982 4983 4984 4985 4987 ldr r6, [r0, #4] {}
4983 4984 4987 4988 4989 cmp r6, r1 {load-use}
4984 4987 4988 4989 4990 beq #0x4006d60 {bmispred}
4989 4990 4991 4992 4994 ldr r0, [r2, r3] {}
4990 4991 4992 4994 4996 ldr r1, [r5] {}
4991 4992 4994 4996 4997 bl #0x4012090 {bmispred}
4995 4996 4997 4998 5000 ldrb r2, [r0] {}
4996 4997 4998 5000 5002 ldrb r3, [r1] {}
4997 4998 5000 5002 5003 cmp r2, #1 {}
4998 5000 5002 5003 5004 it hs {}
5000 5002 5003 5004 5005 cmphs r2, r3 {}
5002 5003 5004 5005 5006 bne #0x4012080 {}
5003 5004 5005 5006 5008 strd r4, r5, [sp, #-0x10]! {}
5004 5005 5006 5008 5009 orr.w r4, r0, r1 {}
5005 5006 5008 5009 5011 strd r6, r7, [sp, #8] {}
5006 5008 5009 5011 5012 mvn r12, #0 {}
5008 5009 5011 5012 5013 lsl.w r2, r4, #0x1d {}
5009 5011 5012 5013 5014 cbz r2, #0x4012100 {}
5011 5012 5013 5014 5015 eor.w r4, r0, r1 {}
5012 5013 5014 5015 5016 tst.w r4, #7 {}
5013 5014 5015 5016 5017 bne #0x401219a {}
5014 5015 5016 5017 5018 and r4, r0, #7 {}
5015 5016 5017 5018 5019 bic r0, r0, #7 {}
5016 5017 5018 5019 5020 and r5, r4, #3 {}
5017 5018 5019 5020 5021 bic r1, r1, #7 {}
5018 5019 5020 5021 5022 lsl.w r5, r5, #3 {}
5019 5020 5021 5022 5024 ldrd r2, r3, [r0], #0x10 {}
5020 5021 5022 5024 5025 tst.w r4, #4 {}
5021 5022 5024 5025 5027 ldrd r6, r7, [r1], #0x10 {}
5022 5024 5025 5027 5028 lsl.w r4, r12, r5 {}
5024 5025 5027 5028 5029 orn r2, r2, r4 {}
5025 5027 5028 5029 5030 orn r6, r6, r4 {}
5027 5028 5029 5030 5031 beq #0x4012108 {bmispred}
5030 5031 5032 5033 5034 uadd8 r5, r2, r12 {}
5031 5032 5033 5034 5035 eor.w r4, r2, r6 {}
5032 5033 5034 5035 5036 sel r4, r4, r12 {}
5033 5034 5035 5036 5037 cbnz r4, #0x4012172 {}
5034 5035 5036 5037 5038 uadd8 r5, r3, r12 {}
5035 5036 5037 5038 5039 eor.w r5, r3, r7 {}
5036 5037 5038 5039 5040 sel r5, r5, r12 {}
5037 5038 5039 5040 5041 cbnz r5, #0x401214a {}
5038 5039 5040 5041 5043 ldrd r2, r3, [r0, #-0x8] {}
5039 5040 5041 5043 5045 ldrd r6, r7, [r1, #-0x8] {}
5040 5041 5043 5045 5046 uadd8 r5, r2, r12 {}
5041 5043 5045 5046 5047 eor.w r4, r2, r6 {}
5043 5045 5046 5047 5048 sel r4, r4, r12 {}
5045 5046 5047 5048 5049 uadd8 r5, r3, r12 {}
5046 5047 5048 5049 5050 eor.w r5, r3, r7 {}
5047 5048 5049 5050 5051 sel r5, r5, r12 {}
5048 5049 5050 5051 5052 orrs r5, r4 {}
5049 5050 5051 5052 5053 beq #0x4012100 {}
5050 5051 5052 5053 5054 cbnz r4, #0x4012172 {}
5051 5052 5053 5054 5055 rev r5, r5 {}
5052 5053 5054 5055 5056 clz r4, r5 {}
5053 5054 5055 5056 5057 bic r4, r4, #7 {}
5054 5055 5056 5057 5058 lsr.w r1, r7, r4 {}
5055 5056 5057 5058 5060 ldrd r6, r7, [sp, #8] {}
5056 5057 5058 5060 5061 lsr.w r3, r3, r4 {}
5057 5058 5060 5061 5062 and r0, r3, #0xff {}
5058 5060 5061 5062 5063 and r1, r1, #0xff {}
5060 5061 5062 5063 5065 ldrd r4, r5, [sp], #0x10 {}
5061 5062 5063 5065 5066 sub.w r0, r0, r1 {}
5062 5063 5065 5066 5067 bx lr {bmispred}
5066 5067 5068 5069 5070 cmp r0, #0 {}
5067 5068 5069 5070 5071 bne #0x4006d18 {}
5068 5069 5070 5071 5072 b #0x4006d28 {bmispred}
5071 5072 5073 5074 5075 mov r0, r4 {}
5072 5073 5074 5075 5077 pop.w {r3, r4, r5, r6, r7, r8, r9, pc} {bmispred}
5075 5076 5077 5078 5079 cmp r0, #0 {}
5076 5077 5078 5079 5080 bne.w #0x40074e6 {bmispred}
5079 5080 5081 5082 5083 mov r8, r4 {}
5080 5081 5082 5083 5084 mov r3, r0 {}
5081 5082 5083 5084 5085 mov r4, r5 {}
5082 5083 5084 5085 5087 ldr.w r10, [sp, #0x54] {}
5083 5084 5085 5087 5089 ldr r6, [sp, #0x58] {}
5084 5085 5087 5089 5091 ldr r5, [sp, #0x98] {}
5085 5087 5089 5091 5093 ldr.w r9, [sp, #0xa4] {}
5087 5089 5091 5093 5095 ldr.w r11, [sp, #0x5c] {}
5089 5091 5093 5095 5096 b #0x4006f60 {bmispred}
5094 5095 5096 5097 5099 ldr r2, [sp, #0xac] {}
5095 5096 5099 5100 5101 cmp r2, #0 {load-use}
5096 5099 5100 5101 5102 beq.w #0x40070da {}
5099 5100 5101 5102 5104 ldrb r2, [r3, #0xc] {}
5100 5101 5104 5105 5106 lsrs r2, r2, #4 {load-use}
5101 5104 5105 5106 5107 cmp r2, #2 {}
5104 5105 5106 5107 5108 beq #0x4006f82 {bmispred}
5107 5108 5109 5110 5111 cmp r2, #0xa {}
5108 5109 5110 5111 5112 beq #0x4006f9a {}
5109 5110 5111 5112 5113 cmp r2, #1 {}
5110 5111 5112 5113 5114 beq #0x4006f8c {bmispred}
5113 5114 5115 5116 5118 ldr r2, [sp, #0x90] {}
5114 5115 5116 5118 5119 movs r0, #1 {}
5115 5116 5118 5119 5121 str r3, [r2] {}
5116 5118 5119 5121 5123 str r4, [r2, #4] {}
5118 5119 5121 5123 5124 add sp, #0x6c {}
5119 5121 5123 5124 5126 pop.w {r4, r5, r6, r7, r8, r9, r10, r11, pc} {bmispred}
5124 5125 5126 5127 5128 subs r2, r0, #0 {}
5125 5126 5127 5128 5129 ble #0x400763a {}
5126 5127 5128 5129 5131 ldr r3, [r7, #0x28] {}
5127 5128 5129 5131 5133 str.w r4, [r7, #0x8c] {}
5128 5129 5131 5133 5134 mov r4, r8 {}
5129 5131 5133 5134 5136 ldr.w r8, [r7, #0x8c] {}
5131 5133 5134 5136 5137 cmp r3, #0 {}
5133 5134 5136 5137 5138 beq.w #0x40078f8 {}
5134 5136 5137 5138 5140 ldr.w r3, [r10] {}
5136 5137 5140 5141 5142 cbz r3, #0x40076b0 {load-use}
5137 5140 5141 5142 5144 ldrb r2, [r3, #0xd] {}
5140 5141 5144 5145 5146 and r2, r2, #3 {load-use}
5141 5144 5145 5146 5147 cmp r2, #3 {}
5144 5145 5146 5147 5148 beq #0x40076ec {}
5145 5146 5147 5148 5150 ldr r4, [r7, #0x2c] {}
5146 5147 5148 5150 5151 movs r5, #0 {}
5147 5148 5150 5151 5153 ldrb.w r3, [r4, #0x194] {}
5148 5150 5153 5154 5155 and r3, r3, #3 {load-use}
5150 5153 5154 5155 5156 cmp r3, #2 {}
5153 5154 5155 5156 5157 beq #0x40077a8 {}
5154 5155 5156 5157 5158 mov r0, r4 {}
5155 5156 5157 5158 5160 ldr.w r3, [r0, #0x1fc] {}
5156 5157 5160 5161 5162 cmp r3, #0 {load-use}
5157 5160 5161 5162 5163 beq.w #0x4007a54 {}
5160 5161 5162 5163 5165 ldr.w r3, [pc, #0xa54] {}
5161 5162 5163 5165 5166 movw r2, #0x804 {}
5162 5163 5165 5166 5167 add r3, pc {}
5163 5165 5166 5167 5169 ldr r3, [r3] {}
5165 5166 5169 5170 5171 tst r3, r2 {load-use}
5166 5169 5170 5171 5172 bne.w #0x400791e {}
5169 5170 5171 5172 5174 ldr r1, [r7, #0x28] {}
5170 5171 5172 5174 5176 str.w r1, [r10] {}
5171 5172 5174 5176 5177 adds r7, #0x5c {}
5172 5174 5176 5177 5178 mov sp, r7 {}
5174 5176 5177 5178 5180 pop.w {r4, r5, r6, r7, r8, r9, r10, r11, pc} {bmispred}
5178 5179 5180 5181 5183 ldr r3, [r7, #0x54] {}
5179 5180 5181 5183 5185 str.w r3, [r6, #0x224] {}
5180 5181 5183 5185 5186 mov r2, r0 {}
5181 5183 5185 5186 5188 str.w r0, [r6, #0x220] {}
5183 5185 5186 5188 5189 cmp r2, #0 {}
5185 5186 5188 5189 5190 beq.w #0x4008e00 {}
5186 5188 5189 5190 5192 ldr r0, [r2] {}
5188 5189 5190 5192 5194 ldr r1, [r3, #4] {}
5189 5190 5194 5195 5196 adds r1, r0, r1 {load-use}
5190 5194 5195 5196 5198 str r1, [r7, #0x3c] {}
5194 5195 5196 5198 5200 ldrb r1, [r3, #0xc] {}
5195 5196 5200 5201 5202 and r1, r1, #0xf {load-use}
5196 5200 5201 5202 5203 cmp r1, #0xa {}
5200 5201 5202 5203 5204 beq.w #0x4009094 {}
5201 5202 5203 5204 5205 cmp r5, #0x12 {}
5202 5203 5204 5205 5206 beq.w #0x400907a {}
5203 5204 5205 5206 5207 bhi #0x4008d1a {}
5204 5205 5206 5207 5208 cmp r5, #2 {}
5205 5206 5207 5208 5209 beq.w #0x4009000 {bmispred}
5208 5209 5210 5211 5213 ldr r3, [r7, #0x14] {}
5209 5210 5213 5214 5215 cmp r6, r3 {load-use}
5210 5213 5214 5215 5216 beq.w #0x400988e {}
5213 5214 5215 5216 5218 ldr r3, [r7, #0x48] {}
5214 5215 5216 5218 5219 add.w r10, r10, #8 {}
5215 5216 5218 5219 5221 ldr r2, [r7, #0x3c] {}
5216 5218 5219 5221 5223 ldr r3, [r3] {}
5218 5219 5221 5223 5224 add r3, r2 {}
5219 5221 5223 5224 5226 str.w r3, [r9, r8] {}
5221 5223 5224 5226 5228 ldr r3, [r7, #0x2c] {}
5223 5224 5228 5229 5230 cmp r3, r10 {load-use}
5224 5228 5229 5230 5231 bhi.w #0x4008c0a {bmispred}
5230 5231 5232 5233 5235 ldr.w r5, [r10, #4] {}
5231 5232 5233 5235 5237 ldr.w r8, [r10] {}
5232 5233 5235 5237 5239 ldr.w r1, [r6, #0x170] {}
5233 5235 5237 5239 5240 add.w r2, r9, r8 {}
5235 5237 5239 5240 5242 str r2, [r7, #0x48] {}
5237 5239 5240 5242 5244 ldr r2, [r7, #0x34] {}
5239 5240 5242 5244 5245 lsrs r3, r5, #8 {}
5240 5242 5244 5245 5246 uxtb r5, r5 {}
5242 5244 5245 5246 5247 lsl.w r11, r3, #4 {}
5244 5245 5246 5247 5248 cmp r5, #0x17 {}
5245 5246 5247 5248 5250 ldrh.w r3, [r2, r3, lsl #1] {}
5246 5247 5248 5250 5252 ldr r2, [r7, #0x4c] {}
5247 5248 5252 5253 5254 add.w r4, r2, r11 {load-use}
5248 5252 5253 5254 5256 str r4, [r7, #0x54] {}
5252 5253 5254 5256 5257 beq.w #0x4008e66 {}
5253 5254 5256 5257 5258 cmp r5, #0 {}
5254 5256 5257 5258 5259 beq #0x4008d06 {}
5256 5257 5258 5259 5261 ldrb r2, [r4, #0xc] {}
5257 5258 5261 5262 5263 lsrs r2, r2, #4 {load-use}
5258 5261 5262 5263 5264 beq #0x4008d14 {}
5261 5262 5263 5264 5266 ldr.w r2, [r6, #0x218] {}
5262 5263 5266 5267 5268 cmp r4, r2 {load-use}
5263 5266 5267 5268 5269 beq.w #0x400919c {bmispred}
5268 5269 5270 5271 5272 cmp r5, #0x11 {}
5269 5270 5271 5272 5273 it ne {}
5270 5271 5272 5273 5274 cmpne r5, #0x16 {}
5271 5272 5273 5274 5275 itet eq {}
5272 5273 5274 5275 5276 moveq.w lr, #1 {}
5273 5274 5275 5276 5277 movne.w lr, #0 {}
5274 5275 5276 5277 5278 moveq r2, lr {}
5275 5276 5277 5278 5279 bne.w #0x4009332 {bmispred}
5278 5279 5280 5281 5282 sub.w r2, r5, #0x12 {}
5279 5280 5281 5282 5283 cmp r5, #0xd {}
5280 5281 5282 5283 5284 it ne {}
5281 5282 5283 5284 5285 cmpne r2, #1 {}
5282 5283 5284 5285 5286 ite ls {}
5283 5284 5285 5286 5287 movls r2, #1 {}
5284 5285 5286 5287 5288 movhi r2, #0 {}
5285 5286 5287 5288 5289 b #0x40091b2 {bmispred}
5288 5289 5290 5291 5292 cmp r5, #0x14 {}
5289 5290 5291 5292 5293 mov r12, r2 {}
5290 5291 5292 5293 5294 beq.w #0x4009958 {}
5291 5292 5293 5294 5295 cmp r5, #0x15 {}
5292 5293 5294 5295 5296 beq.w #0x4009372 {}
5293 5294 5295 5296 5298 ldr.w r0, [r6, #0x21c] {}
5294 5295 5298 5299 5300 cmp r0, r2 {load-use}
5295 5298 5299 5300 5301 beq.w #0x4009382 {bmispred}
5300 5301 5302 5303 5305 ldr r1, [pc, #0xc4] {}
5301 5302 5303 5305 5307 ldr.w r3, [r6, #0x224] {}
5302 5303 5305 5307 5308 add r1, pc {}
5303 5305 5307 5308 5310 ldr.w r2, [r1, #0x50c] {}
5305 5307 5308 5310 5312 str r3, [r7, #0x54] {}
5307 5308 5310 5312 5313 adds r2, #1 {}
5308 5310 5312 5313 5315 str.w r2, [r1, #0x50c] {}
5310 5312 5313 5315 5317 ldr.w r2, [r6, #0x220] {}
5312 5313 5315 5317 5318 b #0x4008cc4 {bmispred}
5316 5317 5318 5319 5320 cmp r2, #0 {}
5317 5318 5319 5320 5321 beq.w #0x4008e00 {}
5318 5319 5320 5321 5323 ldr r0, [r2] {}
5319 5320 5321 5323 5325 ldr r1, [r3, #4] {}
5320 5321 5325 5326 5327 adds r1, r0, r1 {load-use}
5321 5325 5326 5327 5329 str r1, [r7, #0x3c] {}
5325 5326 5327 5329 5331 ldrb r1, [r3, #0xc] {}
5326 5327 5331 5332 5333 and r1, r1, #0xf {load-use}
5327 5331 5332 5333 5334 cmp r1, #0xa {}
5331 5332 5333 5334 5335 beq.w #0x4009094 {}
5332 5333 5334 5335 5336 cmp r5, #0x12 {}
5333 5334 5335 5336 5337 beq.w #0x400907a {}
5334 5335 5336 5337 5338 bhi #0x4008d1a {}
5335 5336 5337 5338 5339 cmp r5, #2 {}
5336 5337 5338 5339 5340 beq.w #0x4009000 {}
5337 5338 5339 5340 5342 ldr r3, [r7, #0x14] {}
5338 5339 5342 5343 5344 cmp r6, r3 {load-use}
5339 5342 5343 5344 5345 beq.w #0x400988e {}
5342 5343 5344 5345 5347 ldr r3, [r7, #0x48] {}
5343 5344 5345 5347 5348 add.w r10, r10, #8 {}
5344 5345 5347 5348 5350 ldr r2, [r7, #0x3c] {}
5345 5347 5348 5350 5352 ldr r3, [r3] {}
5347 5348 5350 5352 5353 add r3, r2 {}
5348 5350 5352 5353 5355 str.w r3, [r9, r8] {}
5350 5352 5353 5355 5357 ldr r3, [r7, #0x2c] {}
5352 5353 5357 5358 5359 cmp r3, r10 {load-use}
5353 5357 5358 5359 5360 bhi.w #0x4008c0a {}
5357 5358 5359 5360 5362 ldr.w r5, [r10, #4] {}
5358 5359 5360 5362 5364 ldr.w r8, [r10] {}
5359 5360 5362 5364 5366 ldr.w r1, [r6, #0x170] {}
5360 5362 5364 5366 5367 add.w r2, r9, r8 {}
5362 5364 5366 5367 5369 str r2, [r7, #0x48] {}
5364 5366 5367 5369 5371 ldr r2, [r7, #0x34] {}
5366 5367 5369 5371 5372 lsrs r3, r5, #8 {}
5367 5369 5371 5372 5373 uxtb r5, r5 {}
5369 5371 5372 5373 5374 lsl.w r11, r3, #4 {}
5371 5372 5373 5374 5375 cmp r5, #0x17 {}
5372 5373 5374 5375 5377 ldrh.w r3, [r2, r3, lsl #1] {}
5373 5374 5375 5377 5379 ldr r2, [r7, #0x4c] {}
5374 5375 5379 5380 5381 add.w r4, r2, r11 {load-use}
5375 5379 5380 5381 5383 str r4, [r7, #0x54] {}
5379 5380 5381 5383 5384 beq.w #0x4008e66 {}
5380 5381 5383 5384 5385 cmp r5, #0 {}
5381 5383 5384 5385 5386 beq #0x4008d06 {}
5383 5384 5385 5386 5388 ldrb r2, [r4, #0xc] {}
5384 5385 5388 5389 5390 lsrs r2, r2, #4 {load-use}
5385 5388 5389 5390 5391 beq #0x4008d14 {}
5388 5389 5390 5391 5393 ldr.w r2, [r6, #0x218] {}
5389 5390 5393 5394 5395 cmp r4, r2 {load-use}
5390 5393 5394 5395 5396 beq.w #0x400919c {}
5393 5394 5395 5396 5397 cmp r5, #0x11 {}
5394 5395 5396 5397 5398 it ne {}
5395 5396 5397 5398 5399 cmpne r5, #0x16 {}
5396 5397 5398 5399 5400 itet eq {}
5397 5398 5399 5400 5401 moveq.w lr, #1 {}
5398 5399 5400 5401 5402 movne.w lr, #0 {}
5399 5400 5401 5402 5403 moveq r2, lr {}
5400 5401 5402 5403 5404 bne.w #0x4009332 {bmispred}
5403 5404 5405 5406 5407 sub.w r2, r5, #0x12 {}
5404 5405 5406 5407 5408 cmp r5, #0xd {}
5405 5406 5407 5408 5409 it ne {}
5406 5407 5408 5409 5410 cmpne r2, #1 {}
5407 5408 5409 5410 5411 ite ls {}
5408 5409 5410 5411 5412 movls r2, #1 {}
5409 5410 5411 5412 5413 movhi r2, #0 {}
5410 5411 5412 5413 5414 b #0x40091b2 {}
5411 5412 5413 5414 5415 cmp r5, #0x14 {}
5412 5413 5414 5415 5416 mov r12, r2 {}
5413 5414 5415 5416 5417 beq.w #0x4009958 {}
5414 5415 5416 5417 5418 cmp r5, #0x15 {}
5415 5416 5417 5418 5419 beq.w #0x4009372 {}
5416 5417 5418 5419 5421 ldr.w r0, [r6, #0x21c] {}
5417 5418 5421 5422 5423 cmp r0, r2 {load-use}
5418 5421 5422 5423 5424 beq.w #0x4009382 {bmispred}
5423 5424 5425 5426 5428 ldr r1, [pc, #0xc4] {}
5424 5425 5426 5428 5430 ldr.w r3, [r6, #0x224] {}
5425 5426 5428 5430 5431 add r1, pc {}
5426 5428 5430 5431 5433 ldr.w r2, [r1, #0x50c] {}
5428 5430 5431 5433 5435 str r3, [r7, #0x54] {}
5430 5431 5433 5435 5436 adds r2, #1 {}
5431 5433 5435 5436 5438 str.w r2, [r1, #0x50c] {}
5433 5435 5436 5438 5440 ldr.w r2, [r6, #0x220] {}
5435 5436 5438 5440 5441 b #0x4008cc4 {bmispred}
5439 5440 5441 5442 5443 cmp r2, #0 {}
5440 5441 5442 5443 5444 beq.w #0x4008e00 {}
5441 5442 5443 5444 5446 ldr r0, [r2] {}
5442 5443 5444 5446 5448 ldr r1, [r3, #4] {}
5443 5444 5448 5449 5450 adds r1, r0, r1 {load-use}
5444 5448 5449 5450 5452 str r1, [r7, #0x3c] {}
5448 5449 5450 5452 5454 ldrb r1, [r3, #0xc] {}
5449 5450 5454 5455 5456 and r1, r1, #0xf {load-use}
5450 5454 5455 5456 5457 cmp r1, #0xa {}
5454 5455 5456 5457 5458 beq.w #0x4009094 {}
5455 5456 5457 5458 5459 cmp r5, #0x12 {}
5456 5457 5458 5459 5460 beq.w #0x400907a {}
5457 5458 5459 5460 5461 bhi #0x4008d1a {}
5458 5459 5460 5461 5462 cmp r5, #2 {}
5459 5460 5461 5462 5463 beq.w #0x4009000 {}
5460 5461 5462 5463 5465 ldr r3, [r7, #0x14] {}
5461 5462 5465 5466 5467 cmp r6, r3 {load-use}
5462 5465 5466 5467 5468 beq.w #0x400988e {}
5465 5466 5467 5468 5470 ldr r3, [r7, #0x48] {}
5466 5467 5468 5470 5471 add.w r10, r10, #8 {}
5467 5468 5470 5471 5473 ldr r2, [r7, #0x3c] {}
5468 5470 5471 5473 5475 ldr r3, [r3] {}
5470 5471 5473 5475 5476 add r3, r2 {}
5471 5473 5475 5476 5478 str.w r3, [r9, r8] {}
5473 5475 5476 5478 5480 ldr r3, [r7, #0x2c] {}
5475 5476 5480 5481 5482 cmp r3, r10 {load-use}
5476 5480 5481 5482 5483 bhi.w #0x4008c0a {}
5480 5481 5482 5483 5485 ldr.w r5, [r10, #4] {}
5481 5482 5483 5485 5487 ldr.w r8, [r10] {}
5482 5483 5485 5487 5489 ldr.w r1, [r6, #0x170] {}
5483 5485 5487 5489 5490 add.w r2, r9, r8 {}
5485 5487 5489 5490 5492 str r2, [r7, #0x48] {}
5487 5489 5490 5492 5494 ldr r2, [r7, #0x34] {}
5489 5490 5492 5494 5495 lsrs r3, r5, #8 {}
5490 5492 5494 5495 5496 uxtb r5, r5 {}
5492 5494 5495 5496 5497 lsl.w r11, r3, #4 {}
5494 5495 5496 5497 5498 cmp r5, #0x17 {}
5495 5496 5497 5498 5500 ldrh.w r3, [r2, r3, lsl #1] {}
5496 5497 5498 5500 5502 ldr r2, [r7, #0x4c] {}
5497 5498 5502 5503 5504 add.w r4, r2, r11 {load-use}
5498 5502 5503 5504 5506 str r4, [r7, #0x54] {}
5502 5503 5504 5506 5507 beq.w #0x4008e66 {}
5503 5504 5506 5507 5508 cmp r5, #0 {}
5504 5506 5507 5508 5509 beq #0x4008d06 {}
5506 5507 5508 5509 5511 ldrb r2, [r4, #0xc] {}
5507 5508 5511 5512 5513 lsrs r2, r2, #4 {load-use}
5508 5511 5512 5513 5514 beq #0x4008d14 {}
5511 5512 5513 5514 5516 ldr.w r2, [r6, #0x218] {}
5512 5513 5516 5517 5518 cmp r4, r2 {load-use}
5513 5516 5517 5518 5519 beq.w #0x400919c {}
5516 5517 5518 5519 5520 cmp r5, #0x11 {}
5517 5518 5519 5520 5521 it ne {}
5518 5519 5520 5521 5522 cmpne r5, #0x16 {}
5519 5520 5521 5522 5523 itet eq {}
5520 5521 5522 5523 5524 moveq.w lr, #1 {}
5521 5522 5523 5524 5525 movne.w lr, #0 {}
5522 5523 5524 5525 5526 moveq r2, lr {}
5523 5524 5525 5526 5527 bne.w #0x4009332 {}
5524 5525 5526 5527 5528 sub.w r2, r5, #0x12 {}
5525 5526 5527 5528 5529 cmp r5, #0xd {}
5526 5527 5528 5529 5530 it ne {}
5527 5528 5529 5530 5531 cmpne r2, #1 {}
5528 5529 5530 5531 5532 ite ls {}
5529 5530 5531 5532 5533 movls r2, #1 {}
5530 5531 5532 5533 5534 movhi r2, #0 {}
5531 5532 5533 5534 5535 b #0x40091b2 {}
5532 5533 5534 5535 5536 cmp r5, #0x14 {}
5533 5534 5535 5536 5537 mov r12, r2 {}
5534 5535 5536 5537 5538 beq.w #0x4009958 {}
5535 5536 5537 5538 5539 cmp r5, #0x15 {}
5536 5537 5538 5539 5540 beq.w #0x4009372 {bmispred}
5539 5540 5541 5542 5543 movs r2, #4 {}
5540 5541 5542 5543 5545 ldr.w r0, [r6, #0x21c] {}
5541 5542 5543 5545 5546 orr.w r2, r12, r2 {}
5542 5543 5545 5546 5547 cmp r2, r0 {}
5543 5545 5546 5547 5548 bne.w #0x4008c58 {bmispred}
5547 5548 5549 5550 5551 sub.w r2, r5, #0x12 {}
5548 5549 5550 5551 5552 cmp r5, #0xd {}
5549 5550 5551 5552 5553 it ne {}
5550 5551 5552 5553 5554 cmpne r2, #1 {}
5551 5552 5553 5554 5555 ite ls {}
5552 5553 5554 5555 5556 movls r2, #1 {}
5553 5554 5555 5556 5557 movhi r2, #0 {}
5554 5555 5556 5557 5558 cmp r5, #0x14 {}
5555 5556 5557 5558 5559 beq.w #0x4008e34 {}
5556 5557 5558 5559 5560 cmp r5, #0x15 {}
5557 5558 5559 5560 5561 ite ne {}
5558 5559 5560 5561 5562 movne r0, #0 {}
5559 5560 5561 5562 5563 moveq r0, #4 {}
5560 5561 5562 5563 5564 ubfx r3, r3, #0, #0xf {}
5561 5562 5563 5564 5565 orrs r2, r0 {}
5562 5563 5564 5565 5567 str.w r4, [r6, #0x218] {}
5563 5564 5565 5567 5568 adds.w r3, r1, r3, lsl #4 {}
5564 5565 5567 5568 5570 str.w r2, [r6, #0x21c] {}
5565 5567 5568 5570 5571 beq #0x4008c92 {}
5567 5568 5570 5571 5573 ldr r1, [r3, #4] {}
5568 5570 5573 5574 5575 cmp r1, #0 {load-use}
5570 5573 5574 5575 5576 it eq {}
5573 5574 5575 5576 5577 moveq r3, #0 {}
5574 5575 5576 5577 5579 ldr r1, [r7, #0x4c] {}
5575 5576 5577 5579 5580 mov.w lr, #1 {}
5576 5577 5579 5580 5582 ldr.w r0, [r1, r11] {}
5577 5579 5580 5582 5583 movs r1, #0 {}
5579 5580 5582 5583 5585 str r2, [sp, #4] {}
5580 5582 5583 5585 5587 ldr r2, [r7, #0x30] {}
5582 5583 5585 5587 5589 str r3, [sp] {}
5583 5585 5587 5589 5590 add r0, r2 {}
5585 5587 5589 5590 5592 str r1, [sp, #0xc] {}
5587 5589 5590 5592 5594 ldr r3, [r7, #0x44] {}
5589 5590 5592 5594 5595 add.w r2, r7, #0x54 {}
5590 5592 5594 5595 5597 str.w lr, [sp, #8] {}
5592 5594 5595 5597 5598 mov r1, r6 {}
5594 5595 5597 5598 5599 bl #0x40075a0 {bmispred}
5598 5599 5600 5601 5603 push.w {r4, r5, r6, r7, r8, r9, r10, r11, lr} {}
5599 5600 5601 5603 5604 mov r6, r1 {}
5600 5601 5603 5604 5605 sub sp, #0x7c {}
5601 5603 5604 5605 5607 ldrb r1, [r0] {}
5603 5604 5605 5607 5608 add r7, sp, #0x20 {}
5604 5605 5607 5608 5609 mov r9, r0 {}
5605 5607 5608 5609 5610 mov r10, r2 {}
5607 5608 5609 5610 5612 str r3, [r7, #0x10] {}
5608 5609 5610 5612 5614 ldr.w r11, [r7, #0x80] {}
5609 5610 5612 5614 5616 ldr.w r8, [r7, #0x8c] {}
5610 5612 5614 5616 5617 cmp r1, #0 {}
5612 5614 5616 5617 5618 beq.w #0x4007918 {}
5614 5616 5617 5618 5619 mov r3, r0 {}
5616 5617 5618 5619 5620 movw r4, #0x1505 {}
5617 5618 5619 5620 5621 add.w r4, r4, r4, lsl #5 {}
5618 5619 5620 5621 5622 add r4, r1 {}
5619 5620 5621 5622 5624 ldrb r1, [r3, #1]! {}
5620 5621 5624 5625 5626 cmp r1, #0 {load-use}
5621 5624 5625 5626 5627 bne #0x40075c6 {}
5624 5625 5626 5627 5628 add.w r4, r4, r4, lsl #5 {}
5625 5626 5627 5628 5629 add r4, r1 {}
5626 5627 5628 5629 5631 ldrb r1, [r3, #1]! {}
5627 5628 5631 5632 5633 cmp r1, #0 {load-use}
5628 5631 5632 5633 5634 bne #0x40075c6 {}
5631 5632 5633 5634 5635 add.w r4, r4, r4, lsl #5 {}
5632 5633 5634 5635 5636 add r4, r1 {}
5633 5634 5635 5636 5638 ldrb r1, [r3, #1]! {}
5634 5635 5638 5639 5640 cmp r1, #0 {load-use}
5635 5638 5639 5640 5641 bne #0x40075c6 {}
5638 5639 5640 5641 5642 add.w r4, r4, r4, lsl #5 {}
5639 5640 5641 5642 5643 add r4, r1 {}
5640 5641 5642 5643 5645 ldrb r1, [r3, #1]! {}
5641 5642 5645 5646 5647 cmp r1, #0 {load-use}
5642 5645 5646 5647 5648 bne #0x40075c6 {}
5645 5646 5647 5648 5649 add.w r4, r4, r4, lsl #5 {}
5646 5647 5648 5649 5650 add r4, r1 {}
5647 5648 5649 5650 5652 ldrb r1, [r3, #1]! {}
5648 5649 5652 5653 5654 cmp r1, #0 {load-use}
5649 5652 5653 5654 5655 bne #0x40075c6 {}
5652 5653 5654 5655 5656 add.w r4, r4, r4, lsl #5 {}
5653 5654 5655 5656 5657 add r4, r1 {}
5654 5655 5656 5657 5659 ldrb r1, [r3, #1]! {}
5655 5656 5659 5660 5661 cmp r1, #0 {load-use}
5656 5659 5660 5661 5662 bne #0x40075c6 {}
5659 5660 5661 5662 5663 add.w r4, r4, r4, lsl #5 {}
5660 5661 5662 5663 5664 add r4, r1 {}
5661 5662 5663 5664 5666 ldrb r1, [r3, #1]! {}
5662 5663 5666 5667 5668 cmp r1, #0 {load-use}
5663 5666 5667 5668 5669 bne #0x40075c6 {}
5666 5667 5668 5669 5670 add.w r4, r4, r4, lsl #5 {}
5667 5668 5669 5670 5671 add r4, r1 {}
5668 5669 5670 5671 5673 ldrb r1, [r3, #1]! {}
5669 5670 5673 5674 5675 cmp r1, #0 {load-use}
5670 5673 5674 5675 5676 bne #0x40075c6 {}
5673 5674 5675 5676 5677 add.w r4, r4, r4, lsl #5 {}
5674 5675 5676 5677 5678 add r4, r1 {}
5675 5676 5677 5678 5680 ldrb r1, [r3, #1]! {}
5676 5677 5680 5681 5682 cmp r1, #0 {load-use}
5677 5680 5681 5682 5683 bne #0x40075c6 {}
5680 5681 5682 5683 5684 add.w r4, r4, r4, lsl #5 {}
5681 5682 5683 5684 5685 add r4, r1 {}
5682 5683 5684 5685 5687 ldrb r1, [r3, #1]! {}
5683 5684 5687 5688 5689 cmp r1, #0 {load-use}
5684 5687 5688 5689 5690 bne #0x40075c6 {}
5687 5688 5689 5690 5691 add.w r4, r4, r4, lsl #5 {}
5688 5689 5690 5691 5692 add r4, r1 {}
5689 5690 5691 5692 5694 ldrb r1, [r3, #1]! {}
5690 5691 5694 5695 5696 cmp r1, #0 {load-use}
5691 5694 5695 5696 5697 bne #0x40075c6 {}
5694 5695 5696 5697 5698 add.w r4, r4, r4, lsl #5 {}
5695 5696 5697 5698 5699 add r4, r1 {}
5696 5697 5698 5699 5701 ldrb r1, [r3, #1]! {}
5697 5698 5701 5702 5703 cmp r1, #0 {load-use}
5698 5701 5702 5703 5704 bne #0x40075c6 {}
5701 5702 5703 5704 5705 add.w r4, r4, r4, lsl #5 {}
5702 5703 5704 5705 5706 add r4, r1 {}
5703 5704 5705 5706 5708 ldrb r1, [r3, #1]! {}
5704 5705 5708 5709 5710 cmp r1, #0 {load-use}
5705 5708 5709 5710 5711 bne #0x40075c6 {}
5708 5709 5710 5711 5712 add.w r4, r4, r4, lsl #5 {}
5709 5710 5711 5712 5713 add r4, r1 {}
5710 5711 5712 5713 5715 ldrb r1, [r3, #1]! {}
5711 5712 5715 5716 5717 cmp r1, #0 {load-use}
5712 5715 5716 5717 5718 bne #0x40075c6 {}
5715 5716 5717 5718 5719 add.w r4, r4, r4, lsl #5 {}
5716 5717 5718 5719 5720 add r4, r1 {}
5717 5718 5719 5720 5722 ldrb r1, [r3, #1]! {}
5718 5719 5722 5723 5724 cmp r1, #0 {load-use}
5719 5722 5723 5724 5725 bne #0x40075c6 {}
5722 5723 5724 5725 5726 add.w r4, r4, r4, lsl #5 {}
5723 5724 5725 5726 5727 add r4, r1 {}
5724 5725 5726 5727 5729 ldrb r1, [r3, #1]! {}
5725 5726 5729 5730 5731 cmp r1, #0 {load-use}
5726 5729 5730 5731 5732 bne #0x40075c6 {}
5729 5730 5731 5732 5733 add.w r4, r4, r4, lsl #5 {}
5730 5731 5732 5733 5734 add r4, r1 {}
5731 5732 5733 5734 5736 ldrb r1, [r3, #1]! {}
5732 5733 5736 5737 5738 cmp r1, #0 {load-use}
5733 5736 5737 5738 5739 bne #0x40075c6 {bmispred}
5738 5739 5740 5741 5743 ldr.w r2, [pc, #0xb48] {}
5739 5740 5741 5743 5744 mov.w r3, #-1 {}
5740 5741 5743 5744 5746 str r3, [r7, #0x20] {}
5741 5743 5744 5746 5747 movs r1, #0 {}
5743 5744 5746 5747 5748 add r2, pc {}
5744 5746 5747 5748 5750 str r1, [r7, #0x28] {}
5746 5747 5748 5750 5752 str r1, [r7, #0x2c] {}
5747 5748 5750 5752 5754 ldr.w r3, [r2, #0x508] {}
5748 5750 5752 5754 5755 adds r3, #1 {}
5750 5752 5754 5755 5757 str.w r3, [r2, #0x508] {}
5752 5754 5755 5757 5758 cmp.w r11, #0 {}
5754 5755 5757 5758 5759 beq #0x4007602 {}
5755 5757 5758 5759 5761 ldr.w r3, [r7, #0x88] {}
5757 5758 5761 5762 5763 bics r3, r3, #5 {load-use}
5758 5761 5762 5763 5764 bne.w #0x4007ee2 {}
5761 5762 5763 5764 5766 ldr r3, [r7, #0x10] {}
5762 5763 5766 5767 5769 ldr.w lr, [r3] {load-use}
5763 5766 5767 5769 5770 cmp.w r8, #0 {}
5766 5767 5769 5770 5771 bne.w #0x40078dc {}
5767 5769 5770 5771 5772 cmp.w lr, #0 {}
5769 5770 5771 5772 5773 beq.w #0x40078f8 {}
5770 5771 5772 5773 5775 str.w r8, [r7, #0xc] {}
5771 5772 5773 5775 5777 ldr r5, [r7, #0x10] {}
5772 5773 5775 5777 5778 add.w r3, r7, #0x20 {}
5773 5775 5777 5778 5780 str.w r8, [r7, #0x8c] {}
5775 5777 5778 5780 5781 mov r8, r4 {}
5777 5778 5780 5781 5783 str r3, [r7, #0x18] {}
5778 5780 5781 5783 5784 add.w r3, r7, #0x28 {}
5780 5781 5783 5784 5786 ldr r0, [r7, #0xc] {}
5781 5783 5784 5786 5788 str r3, [r7, #0x14] {}
5783 5784 5786 5788 5790 str r5, [r7, #0x1c] {}
5784 5786 5788 5790 5792 ldr.w r4, [r7, #0x8c] {}
5786 5788 5790 5792 5793 b #0x400765e {bmispred}
5791 5792 5793 5794 5796 ldr.w r5, [r7, #0x84] {}
5792 5793 5794 5796 5797 mov r1, r8 {}
5793 5794 5796 5797 5799 ldr.w r3, [r10] {}
5794 5796 5797 5799 5801 ldr r2, [r7, #0x18] {}
5796 5797 5799 5801 5803 str r5, [sp, #0x18] {}
5797 5799 5801 5803 5805 ldr.w r5, [r7, #0x88] {}
5799 5801 5803 5805 5807 str r0, [sp, #8] {}
5801 5803 5805 5807 5808 mov r0, r9 {}
5803 5805 5807 5808 5810 str r6, [sp, #0x1c] {}
5805 5807 5808 5810 5812 str r5, [sp, #0x10] {}
5807 5808 5810 5812 5814 ldr r5, [r7, #0x14] {}
5808 5810 5812 5814 5816 str r4, [sp, #0x14] {}
5810 5812 5814 5816 5818 str.w r11, [sp, #0xc] {}
5812 5814 5816 5818 5820 str.w lr, [sp, #4] {}
5814 5816 5818 5820 5822 str r5, [sp] {}
5816 5818 5820 5822 5823 bl #0x4006da8 {bmispred}
5821 5822 5823 5824 5826 push.w {r4, r5, r6, r7, r8, r9, r10, r11, lr} {}
5822 5823 5824 5826 5827 sub sp, #0x6c {}
5823 5824 5826 5827 5829 ldr r4, [sp, #0x94] {}
5824 5826 5827 5829 5831 str r3, [sp, #0x3c] {}
5826 5827 5829 5831 5833 str r2, [sp, #0x44] {}
5827 5829 5831 5833 5835 ldr r3, [r4, #4] {}
5829 5831 5833 5835 5837 ldr.w r2, [pc, #0x79c] {}
5831 5833 5835 5837 5839 str r0, [sp, #0x34] {}
5833 5835 5837 5839 5840 add r2, pc {}
5835 5837 5839 5840 5841 mov r10, r3 {}
5837 5839 5840 5841 5843 str r2, [sp, #0x48] {}
5839 5840 5841 5843 5845 ldr r5, [sp, #0x98] {}
5840 5841 5843 5845 5847 ldr.w r9, [sp, #0xa4] {}
5841 5843 5845 5847 5849 ldr.w r8, [sp, #0xa8] {}
5843 5845 5847 5849 5851 ldr r6, [r4] {}
5845 5847 5849 5851 5852 lsrs r3, r1, #5 {}
5847 5849 5851 5852 5854 ldr.w r2, [pc, #0x784] {}
5849 5851 5852 5854 5855 mov r7, r8 {}
5851 5852 5854 5855 5857 str r3, [sp, #0x30] {}
5852 5854 5855 5857 5858 add.w r6, r6, r5, lsl #2 {}
5854 5855 5857 5858 5860 ldr.w r3, [pc, #0x77c] {}
5855 5857 5858 5860 5861 mov r11, r10 {}
5857 5858 5860 5861 5862 add r2, pc {}
5858 5860 5861 5862 5864 str r1, [sp, #0x28] {}
5860 5861 5862 5864 5865 add r3, pc {}
5861 5862 5864 5865 5867 str r2, [sp, #0x40] {}
5862 5864 5865 5867 5869 str r3, [sp, #0x20] {}
5864 5865 5867 5869 5870 movw r3, #0xaaab {}
5865 5867 5869 5870 5871 movt r3, #0xaaaa {}
5867 5869 5870 5871 5873 str r3, [sp, #0x4c] {}
5869 5870 5871 5873 5875 ldr r3, [r6], #4 {}
5870 5871 5875 5876 5878 ldr r4, [r3, #0x14] {load-use}
5871 5875 5878 5879 5880 cmp r4, r9 {load-use}
5875 5878 5879 5880 5881 beq #0x4006e98 {}
5878 5879 5880 5881 5882 ands r10, r7, #2 {}
5879 5880 5881 5882 5883 beq #0x4006e0e {bmispred}
5882 5883 5884 5885 5887 ldrb.w r3, [r4, #0x195] {}
5883 5884 5887 5888 5889 lsls r2, r3, #0x1a {load-use}
5884 5887 5888 5889 5890 bmi #0x4006e98 {}
5887 5888 5889 5890 5892 ldr r3, [sp, #0x20] {}
5888 5889 5892 5893 5895 ldr r3, [r3] {load-use}
5889 5892 5895 5896 5897 lsls r3, r3, #0x1c {load-use}
5892 5895 5896 5897 5898 bmi #0x4006ea6 {}
5895 5896 5897 5898 5900 ldr.w r1, [r4, #0x178] {}
5896 5897 5900 5901 5902 cmp r1, #0 {load-use}
5897 5900 5901 5902 5903 beq #0x4006e98 {}
5900 5901 5902 5903 5905 ldr r2, [r4, #0x38] {}
5901 5902 5903 5905 5906 movs r0, #0 {}
5902 5903 5905 5906 5908 ldr r3, [r4, #0x34] {}
5903 5905 5906 5908 5910 ldr.w lr, [r4, #0x184] {}
5905 5906 5908 5910 5912 ldr r2, [r2, #4] {}
5906 5908 5910 5912 5914 ldr r3, [r3, #4] {}
5908 5910 5912 5914 5916 str r0, [sp, #0x60] {}
5910 5912 5914 5916 5918 str r2, [sp, #0x38] {}
5912 5914 5916 5918 5920 str r3, [sp, #0x24] {}
5914 5916 5918 5920 5922 str r0, [sp, #0x64] {}
5916 5918 5920 5922 5923 cmp.w lr, #0 {}
5918 5920 5922 5923 5924 beq #0x4006ed2 {}
5920 5922 5923 5924 5926 ldr.w r3, [r4, #0x180] {}
5922 5923 5924 5926 5928 ldr.w r0, [r4, #0x17c] {}
5923 5924 5926 5928 5930 ldr r2, [sp, #0x28] {}
5924 5926 5928 5930 5932 str r3, [sp, #0x2c] {}
5926 5928 5930 5932 5934 ldr r3, [sp, #0x30] {}
5928 5930 5932 5934 5935 and r12, r2, #0x1f {}
5930 5932 5934 5935 5936 ands r0, r3 {}
5932 5934 5935 5936 5938 ldr r3, [sp, #0x2c] {}
5934 5935 5936 5938 5940 ldr.w r0, [lr, r0, lsl #2] {}
5935 5936 5938 5940 5941 lsr.w r3, r2, r3 {}
5936 5938 5940 5941 5942 and r3, r3, #0x1f {}
5938 5940 5941 5942 5943 mov r2, r12 {}
5940 5941 5942 5943 5944 lsr.w r3, r0, r3 {}
5941 5942 5943 5944 5945 lsrs r0, r2 {}
5942 5943 5944 5945 5946 ands r3, r0 {}
5943 5944 5945 5946 5947 lsls r0, r3, #0x1f {}
5944 5945 5946 5947 5948 bmi.w #0x4007180 {}
5945 5946 5947 5948 5949 mov.w r8, #1 {}
5946 5947 5948 5949 5951 ldr r3, [sp, #0x9c] {}
5947 5948 5951 5952 5953 cmp r3, #0 {load-use}
5948 5951 5952 5953 5954 ite eq {}
5951 5952 5953 5954 5955 moveq r3, #0 {}
5952 5953 5954 5955 5956 andne r3, r8, #1 {}
5953 5954 5955 5956 5957 cbz r3, #0x4006e98 {}
5954 5955 5956 5957 5959 ldr r3, [sp, #0x9c] {}
5955 5956 5959 5960 5962 ldr r0, [r3, #0xc] {load-use}
5956 5959 5962 5963 5964 cbz r0, #0x4006e98 {load-use}
5959 5962 5963 5964 5965 adds r5, #1 {}
5962 5963 5964 5965 5966 cmp r11, r5 {}
5963 5964 5965 5966 5967 bhi #0x4006df6 {bmispred}
5966 5967 5968 5969 5971 ldr r3, [r6], #4 {}
5967 5968 5971 5972 5974 ldr r4, [r3, #0x14] {load-use}
5968 5971 5974 5975 5976 cmp r4, r9 {load-use}
5971 5974 5975 5976 5977 beq #0x4006e98 {}
5974 5975 5976 5977 5978 ands r10, r7, #2 {}
5975 5976 5977 5978 5979 beq #0x4006e0e {bmispred}
5978 5979 5980 5981 5983 ldrb.w r3, [r4, #0x195] {}
5979 5980 5983 5984 5985 lsls r2, r3, #0x1a {load-use}
5980 5983 5984 5985 5986 bmi #0x4006e98 {}
5983 5984 5985 5986 5988 ldr r3, [sp, #0x20] {}
5984 5985 5988 5989 5991 ldr r3, [r3] {load-use}
5985 5988 5991 5992 5993 lsls r3, r3, #0x1c {load-use}
5988 5991 5992 5993 5994 bmi #0x4006ea6 {}
5991 5992 5993 5994 5996 ldr.w r1, [r4, #0x178] {}
5992 5993 5996 5997 5998 cmp r1, #0 {load-use}
5993 5996 5997 5998 5999 beq #0x4006e98 {}
5996 5997 5998 5999 6001 ldr r2, [r4, #0x38] {}
5997 5998 5999 6001 6002 movs r0, #0 {}
5998 5999 6001 6002 6004 ldr r3, [r4, #0x34] {}
5999 6001 6002 6004 6006 ldr.w lr, [r4, #0x184] {}
6001 6002 6004 6006 6008 ldr r2, [r2, #4] {}
6002 6004 6006 6008 6010 ldr r3, [r3, #4] {}
6004 6006 6008 6010 6012 str r0, [sp, #0x60] {}
6006 6008 6010 6012 6014 str r2, [sp, #0x38] {}
6008 6010 6012 6014 6016 str r3, [sp, #0x24] {}
6010 6012 6014 6016 6018 str r0, [sp, #0x64] {}
6012 6014 6016 6018 6019 cmp.w lr, #0 {}
6014 6016 6018 6019 6020 beq #0x4006ed2 {}
6016 6018 6019 6020 6022 ldr.w r3, [r4, #0x180] {}
6018 6019 6020 6022 6024 ldr.w r0, [r4, #0x17c] {}
6019 6020 6022 6024 6026 ldr r2, [sp, #0x28] {}
6020 6022 6024 6026 6028 str r3, [sp, #0x2c] {}
6022 6024 6026 6028 6030 ldr r3, [sp, #0x30] {}
6024 6026 6028 6030 6031 and r12, r2, #0x1f {}
6026 6028 6030 6031 6032 ands r0, r3 {}
6028 6030 6031 6032 6034 ldr r3, [sp, #0x2c] {}
6030 6031 6032 6034 6036 ldr.w r0, [lr, r0, lsl #2] {}
6031 6032 6034 6036 6037 lsr.w r3, r2, r3 {}
6032 6034 6036 6037 6038 and r3, r3, #0x1f {}
6034 6036 6037 6038 6039 mov r2, r12 {}
6036 6037 6038 6039 6040 lsr.w r3, r0, r3 {}
6037 6038 6039 6040 6041 lsrs r0, r2 {}
6038 6039 6040 6041 6042 ands r3, r0 {}
6039 6040 6041 6042 6043 lsls r0, r3, #0x1f {}
6040 6041 6042 6043 6044 bmi.w #0x4007180 {bmispred}
6043 6044 6045 6046 6048 ldr.w r8, [sp, #0x28] {}
6044 6045 6048 6049 6050 mov r0, r8 {load-use}
6045 6048 6049 6050 6051 bl #0x40135a4 {bmispred}
6050 6051 6052 6053 6054 cmp r1, #0 {}
6051 6052 6053 6054 6055 beq #0x401359a {}
6052 6053 6054 6055 6057 push.w {r0, r1, lr} {}
6053 6054 6055 6057 6058 bl #0x4013348 {bmispred}
6056 6057 6058 6059 6060 subs r2, r1, #1 {}
6057 6058 6059 6060 6061 it eq {}
6058 6059 6060 6061 6062 bxeq lr {}
6059 6060 6061 6062 6063 blo.w #0x401359a {}
6060 6061 6062 6063 6064 cmp r0, r1 {}
6061 6062 6063 6064 6065 bls.w #0x4013584 {}
6062 6063 6064 6065 6066 tst r1, r2 {}
6063 6064 6065 6066 6067 beq.w #0x401358c {}
6064 6065 6066 6067 6068 clz r3, r0 {}
6065 6066 6067 6068 6069 clz r2, r1 {}
6066 6067 6068 6069 6070 sub.w r3, r2, r3 {}
6067 6068 6069 6070 6071 rsb.w r3, r3, #0x1f {}
6068 6069 6070 6071 6072 adr r2, #0x10 {}
6069 6070 6071 6072 6073 add.w r3, r2, r3, lsl #4 {}
6070 6071 6072 6073 6074 mov.w r2, #0 {}
6071 6072 6073 6074 6075 mov pc, r3 {bmispred}
6074 6075 6076 6077 6078 cmp.w r0, r1, lsl #29 {}
6075 6076 6077 6078 6079 nop  {}
6076 6077 6078 6079 6080 adc.w r2, r2, r2 {}
6077 6078 6079 6080 6081 it hs {}
6078 6079 6080 6081 6082 subhs.w r0, r0, r1, lsl #29 {}
6079 6080 6081 6082 6083 cmp.w r0, r1, lsl #28 {}
6080 6081 6082 6083 6084 nop  {}
6081 6082 6083 6084 6085 adc.w r2, r2, r2 {}
6082 6083 6084 6085 6086 it hs {}
6083 6084 6085 6086 6087 subhs.w r0, r0, r1, lsl #28 {}
6084 6085 6086 6087 6088 cmp.w r0, r1, lsl #27 {}
6085 6086 6087 6088 6089 nop  {}
6086 6087 6088 6089 6090 adc.w r2, r2, r2 {}
6087 6088 6089 6090 6091 it hs {}
6088 6089 6090 6091 6092 subhs.w r0, r0, r1, lsl #27 {}
6089 6090 6091 6092 6093 cmp.w r0, r1, lsl #26 {}
6090 6091 6092 6093 6094 nop  {}
6091 6092 6093 6094 6095 adc.w r2, r2, r2 {}
6092 6093 6094 6095 6096 it hs {}
6093 6094 6095 6096 6097 subhs.w r0, r0, r1, lsl #26 {}
6094 6095 6096 6097 6098 cmp.w r0, r1, lsl #25 {}
6095 6096 6097 6098 6099 nop  {}
6096 6097 6098 6099 6100 adc.w r2, r2, r2 {}
6097 6098 6099 6100 6101 it hs {}
6098 6099 6100 6101 6102 subhs.w r0, r0, r1, lsl #25 {}
6099 6100 6101 6102 6103 cmp.w r0, r1, lsl #24 {}
6100 6101 6102 6103 6104 nop  {}
6101 6102 6103 6104 6105 adc.w r2, r2, r2 {}
6102 6103 6104 6105 6106 it hs {}
6103 6104 6105 6106 6107 subhs.w r0, r0, r1, lsl #24 {}
6104 6105 6106 6107 6108 cmp.w r0, r1, lsl #23 {}
6105 6106 6107 6108 6109 nop  {}
6106 6107 6108 6109 6110 adc.w r2, r2, r2 {}
6107 6108 6109 6110 6111 it hs {}
6108 6109 6110 6111 6112 subhs.w r0, r0, r1, lsl #23 {}
6109 6110 6111 6112 6113 cmp.w r0, r1, lsl #22 {}
6110 6111 6112 6113 6114 nop  {}
6111 6112 6113 6114 6115 adc.w r2, r2, r2 {}
6112 6113 6114 6115 6116 it hs {}
6113 6114 6115 6116 6117 subhs.w r0, r0, r1, lsl #22 {}
6114 6115 6116 6117 6118 cmp.w r0, r1, lsl #21 {}
6115 6116 6117 6118 6119 nop  {}
6116 6117 6118 6119 6120 adc.w r2, r2, r2 {}
6117 6118 6119 6120 6121 it hs {}
6118 6119 6120 6121 6122 subhs.w r0, r0, r1, lsl #21 {}
6119 6120 6121 6122 6123 cmp.w r0, r1, lsl #20 {}
6120 6121 6122 6123 6124 nop  {}
6121 6122 6123 6124 6125 adc.w r2, r2, r2 {}
6122 6123 6124 6125 6126 it hs {}
6123 6124 6125 6126 6127 subhs.w r0, r0, r1, lsl #20 {}
6124 6125 6126 6127 6128 cmp.w r0, r1, lsl #19 {}
6125 6126 6127 6128 6129 nop  {}
6126 6127 6128 6129 6130 adc.w r2, r2, r2 {}
6127 6128 6129 6130 6131 it hs {}
6128 6129 6130 6131 6132 subhs.w r0, r0, r1, lsl #19 {}
6129 6130 6131 6132 6133 cmp.w r0, r1, lsl #18 {}
6130 6131 6132 6133 6134 nop  {}
6131 6132 6133 6134 6135 adc.w r2, r2, r2 {}
6132 6133 6134 6135 6136 it hs {}
6133 6134 6135 6136 6137 subhs.w r0, r0, r1, lsl #18 {}
6134 6135 6136 6137 6138 cmp.w r0, r1, lsl #17 {}
6135 6136 6137 6138 6139 nop  {}
6136 6137 6138 6139 6140 adc.w r2, r2, r2 {}
6137 6138 6139 6140 6141 it hs {}
6138 6139 6140 6141 6142 subhs.w r0, r0, r1, lsl #17 {}
6139 6140 6141 6142 6143 cmp.w r0, r1, lsl #16 {}
6140 6141 6142 6143 6144 nop  {}
6141 6142 6143 6144 6145 adc.w r2, r2, r2 {}
6142 6143 6144 6145 6146 it hs {}
6143 6144 6145 6146 6147 subhs.w r0, r0, r1, lsl #16 {}
6144 6145 6146 6147 6148 cmp.w r0, r1, lsl #15 {}
6145 6146 6147 6148 6149 nop  {}
6146 6147 6148 6149 6150 adc.w r2, r2, r2 {}
6147 6148 6149 6150 6151 it hs {}
6148 6149 6150 6151 6152 subhs.w r0, r0, r1, lsl #15 {}
6149 6150 6151 6152 6153 cmp.w r0, r1, lsl #14 {}
6150 6151 6152 6153 6154 nop  {}
6151 6152 6153 6154 6155 adc.w r2, r2, r2 {}
6152 6153 6154 6155 6156 it hs {}
6153 6154 6155 6156 6157 subhs.w r0, r0, r1, lsl #14 {}
6154 6155 6156 6157 6158 cmp.w r0, r1, lsl #13 {}
6155 6156 6157 6158 6159 nop  {}
6156 6157 6158 6159 6160 adc.w r2, r2, r2 {}
6157 6158 6159 6160 6161 it hs {}
6158 6159 6160 6161 6162 subhs.w r0, r0, r1, lsl #13 {}
6159 6160 6161 6162 6163 cmp.w r0, r1, lsl #12 {}
6160 6161 6162 6163 6164 nop  {}
6161 6162 6163 6164 6165 adc.w r2, r2, r2 {}
6162 6163 6164 6165 6166 it hs {}
6163 6164 6165 6166 6167 subhs.w r0, r0, r1, lsl #12 {}
6164 6165 6166 6167 6168 cmp.w r0, r1, lsl #11 {}
6165 6166 6167 6168 6169 nop  {}
6166 6167 6168 6169 6170 adc.w r2, r2, r2 {}
6167 6168 6169 6170 6171 it hs {}
6168 6169 6170 6171 6172 subhs.w r0, r0, r1, lsl #11 {}
6169 6170 6171 6172 6173 cmp.w r0, r1, lsl #10 {}
6170 6171 6172 6173 6174 nop  {}
6171 6172 6173 6174 6175 adc.w r2, r2, r2 {}
6172 6173 6174 6175 6176 it hs {}
6173 6174 6175 6176 6177 subhs.w r0, r0, r1, lsl #10 {}
6174 6175 6176 6177 6178 cmp.w r0, r1, lsl #9 {}
6175 6176 6177 6178 6179 nop  {}
6176 6177 6178 6179 6180 adc.w r2, r2, r2 {}
6177 6178 6179 6180 6181 it hs {}
6178 6179 6180 6181 6182 subhs.w r0, r0, r1, lsl #9 {}
6179 6180 6181 6182 6183 cmp.w r0, r1, lsl #8 {}
6180 6181 6182 6183 6184 nop  {}
6181 6182 6183 6184 6185 adc.w r2, r2, r2 {}
6182 6183 6184 6185 6186 it hs {}
6183 6184 6185 6186 6187 subhs.w r0, r0, r1, lsl #8 {}
6184 6185 6186 6187 6188 cmp.w r0, r1, lsl #7 {}
6185 6186 6187 6188 6189 nop  {}
6186 6187 6188 6189 6190 adc.w r2, r2, r2 {}
6187 6188 6189 6190 6191 it hs {}
6188 6189 6190 6191 6192 subhs.w r0, r0, r1, lsl #7 {}
6189 6190 6191 6192 6193 cmp.w r0, r1, lsl #6 {}
6190 6191 6192 6193 6194 nop  {}
6191 6192 6193 6194 6195 adc.w r2, r2, r2 {}
6192 6193 6194 6195 6196 it hs {}
6193 6194 6195 6196 6197 subhs.w r0, r0, r1, lsl #6 {}
6194 6195 6196 6197 6198 cmp.w r0, r1, lsl #5 {}
6195 6196 6197 6198 6199 nop  {}
6196 6197 6198 6199 6200 adc.w r2, r2, r2 {}
6197 6198 6199 6200 6201 it hs {}
6198 6199 6200 6201 6202 subhs.w r0, r0, r1, lsl #5 {}
6199 6200 6201 6202 6203 cmp.w r0, r1, lsl #4 {}
6200 6201 6202 6203 6204 nop  {}
6201 6202 6203 6204 6205 adc.w r2, r2, r2 {}
6202 6203 6204 6205 6206 it hs {}
6203 6204 6205 6206 6207 subhs.w r0, r0, r1, lsl #4 {}
6204 6205 6206 6207 6208 cmp.w r0, r1, lsl #3 {}
6205 6206 6207 6208 6209 nop  {}
6206 6207 6208 6209 6210 adc.w r2, r2, r2 {}
6207 6208 6209 6210 6211 it hs {}
6208 6209 6210 6211 6212 subhs.w r0, r0, r1, lsl #3 {}
6209 6210 6211 6212 6213 cmp.w r0, r1, lsl #2 {}
6210 6211 6212 6213 6214 nop  {}
6211 6212 6213 6214 6215 adc.w r2, r2, r2 {}
6212 6213 6214 6215 6216 it hs {}
6213 6214 6215 6216 6217 subhs.w r0, r0, r1, lsl #2 {}
6214 6215 6216 6217 6218 cmp.w r0, r1, lsl #1 {}
6215 6216 6217 6218 6219 nop  {}
6216 6217 6218 6219 6220 adc.w r2, r2, r2 {}
6217 6218 6219 6220 6221 it hs {}
6218 6219 6220 6221 6222 subhs.w r0, r0, r1, lsl #1 {}
6219 6220 6221 6222 6223 cmp.w r0, r1 {}
6220 6221 6222 6223 6224 nop  {}
6221 6222 6223 6224 6225 adc.w r2, r2, r2 {}
6222 6223 6224 6225 6226 it hs {}
6223 6224 6225 6226 6227 subhs.w r0, r0, r1 {}
6224 6225 6226 6227 6228 mov r0, r2 {}
6225 6226 6227 6228 6229 bx lr {bmispred}
6228 6229 6230 6231 6233 pop.w {r1, r2, lr} {}
6229 6230 6231 6233 6234 mul r3, r2, r0 {}
6230 6231 6233 6234 6235 sub.w r1, r1, r3 {}
6231 6233 6234 6235 6236 bx lr {bmispred}
6235 6236 6237 6238 6240 ldr.w r3, [r4, #0x188] {}
6236 6237 6240 6241 6243 ldr.w r3, [r3, r1, lsl #2] {load-use}
6237 6240 6243 6244 6245 cmp r3, #0 {load-use}
6240 6243 6244 6245 6246 beq.w #0x4006e74 {}
6243 6244 6245 6246 6248 ldr.w r2, [r4, #0x18c] {}
6244 6245 6246 6248 6249 add r1, sp, #0x60 {}
6245 6246 6248 6249 6251 str.w r10, [sp, #0x54] {}
6246 6248 6249 6251 6252 add.w r3, r2, r3, lsl #2 {}
6248 6249 6251 6252 6254 str r1, [sp, #0x2c] {}
6249 6251 6252 6254 6256 str r6, [sp, #0x58] {}
6251 6252 6254 6256 6257 add r1, sp, #0x64 {}
6252 6254 6256 6257 6259 str r5, [sp, #0x98] {}
6254 6256 6257 6259 6260 mov r6, r3 {}
6256 6257 6259 6260 6262 str.w r9, [sp, #0xa4] {}
6257 6259 6260 6262 6263 mov r5, r4 {}
6259 6260 6262 6263 6265 str.w r11, [sp, #0x5c] {}
6260 6262 6263 6265 6267 str r1, [sp, #0x50] {}
6262 6263 6265 6267 6269 ldr.w r10, [sp, #0x3c] {}
6263 6265 6267 6269 6271 ldr.w r9, [sp, #0x38] {}
6265 6267 6269 6271 6273 ldr.w r11, [sp, #0x34] {}
6267 6269 6271 6273 6274 b #0x40071d4 {bmispred}
6272 6273 6274 6275 6277 ldr r3, [r6] {}
6273 6274 6277 6278 6279 eor.w r2, r8, r3 {load-use}
6274 6277 6278 6279 6280 lsrs r2, r2, #1 {}
6277 6278 6279 6280 6281 bne #0x40071ca {bmispred}
6280 6281 6282 6283 6284 lsls r1, r3, #0x1f {}
6281 6282 6283 6284 6285 add.w r6, r6, #4 {}
6282 6283 6284 6285 6286 bmi.w #0x4007382 {}
6283 6284 6285 6286 6288 ldr r3, [r6] {}
6284 6285 6288 6289 6290 eor.w r2, r8, r3 {load-use}
6285 6288 6289 6290 6291 lsrs r2, r2, #1 {}
6288 6289 6290 6291 6292 bne #0x40071ca {}
6289 6290 6291 6292 6293 lsls r1, r3, #0x1f {}
6290 6291 6292 6293 6294 add.w r6, r6, #4 {}
6291 6292 6293 6294 6295 bmi.w #0x4007382 {}
6292 6293 6294 6295 6297 ldr r3, [r6] {}
6293 6294 6297 6298 6299 eor.w r2, r8, r3 {load-use}
6294 6297 6298 6299 6300 lsrs r2, r2, #1 {}
6297 6298 6299 6300 6301 bne #0x40071ca {}
6298 6299 6300 6301 6302 lsls r1, r3, #0x1f {}
6299 6300 6301 6302 6303 add.w r6, r6, #4 {}
6300 6301 6302 6303 6304 bmi.w #0x4007382 {bmispred}
6303 6304 6305 6306 6307 mov r4, r5 {}
6304 6305 6306 6307 6309 ldr.w r10, [sp, #0x54] {}
6305 6306 6307 6309 6311 ldr r6, [sp, #0x58] {}
6306 6307 6309 6311 6313 ldr r5, [sp, #0x98] {}
6307 6309 6311 6313 6315 ldr.w r9, [sp, #0xa4] {}
6309 6311 6313 6315 6317 ldr.w r11, [sp, #0x5c] {}
6311 6313 6315 6317 6318 b #0x400727c {bmispred}
6316 6317 6318 6319 6321 ldr r3, [sp, #0x60] {}
6317 6318 6321 6322 6323 cmp r3, #1 {load-use}
6318 6321 6322 6323 6324 bne.w #0x4006e74 {bmispred}
6323 6324 6325 6326 6327 mov.w r8, #1 {}
6324 6325 6326 6327 6329 ldr r3, [sp, #0x9c] {}
6325 6326 6329 6330 6331 cmp r3, #0 {load-use}
6326 6329 6330 6331 6332 ite eq {}
6329 6330 6331 6332 6333 moveq r3, #0 {}
6330 6331 6332 6333 6334 andne r3, r8, #1 {}
6331 6332 6333 6334 6335 cbz r3, #0x4006e98 {}
6332 6333 6334 6335 6337 ldr r3, [sp, #0x9c] {}
6333 6334 6337 6338 6340 ldr r0, [r3, #0xc] {load-use}
6334 6337 6340 6341 6342 cbz r0, #0x4006e98 {load-use}
6337 6340 6341 6342 6343 adds r5, #1 {}
6340 6341 6342 6343 6344 cmp r11, r5 {}
6341 6342 6343 6344 6345 bhi #0x4006df6 {bmispred}
6344 6345 6346 6347 6349 ldr r3, [r6], #4 {}
6345 6346 6349 6350 6352 ldr r4, [r3, #0x14] {load-use}
6346 6349 6352 6353 6354 cmp r4, r9 {load-use}
6349 6352 6353 6354 6355 beq #0x4006e98 {}
6352 6353 6354 6355 6356 ands r10, r7, #2 {}
6353 6354 6355 6356 6357 beq #0x4006e0e {bmispred}
6356 6357 6358 6359 6361 ldrb.w r3, [r4, #0x195] {}
6357 6358 6361 6362 6363 lsls r2, r3, #0x1a {load-use}
6358 6361 6362 6363 6364 bmi #0x4006e98 {}
6361 6362 6363 6364 6366 ldr r3, [sp, #0x20] {}
6362 6363 6366 6367 6369 ldr r3, [r3] {load-use}
6363 6366 6369 6370 6371 lsls r3, r3, #0x1c {load-use}
6366 6369 6370 6371 6372 bmi #0x4006ea6 {}
6369 6370 6371 6372 6374 ldr.w r1, [r4, #0x178] {}
6370 6371 6374 6375 6376 cmp r1, #0 {load-use}
6371 6374 6375 6376 6377 beq #0x4006e98 {}
6374 6375 6376 6377 6379 ldr r2, [r4, #0x38] {}
6375 6376 6377 6379 6380 movs r0, #0 {}
6376 6377 6379 6380 6382 ldr r3, [r4, #0x34] {}
6377 6379 6380 6382 6384 ldr.w lr, [r4, #0x184] {}
6379 6380 6382 6384 6386 ldr r2, [r2, #4] {}
6380 6382 6384 6386 6388 ldr r3, [r3, #4] {}
6382 6384 6386 6388 6390 str r0, [sp, #0x60] {}
6384 6386 6388 6390 6392 str r2, [sp, #0x38] {}
6386 6388 6390 6392 6394 str r3, [sp, #0x24] {}
6388 6390 6392 6394 6396 str r0, [sp, #0x64] {}
6390 6392 6394 6396 6397 cmp.w lr, #0 {}
6392 6394 6396 6397 6398 beq #0x4006ed2 {}
6394 6396 6397 6398 6400 ldr.w r3, [r4, #0x180] {}
6396 6397 6398 6400 6402 ldr.w r0, [r4, #0x17c] {}
6397 6398 6400 6402 6404 ldr r2, [sp, #0x28] {}
6398 6400 6402 6404 6406 str r3, [sp, #0x2c] {}
6400 6402 6404 6406 6408 ldr r3, [sp, #0x30] {}
6402 6404 6406 6408 6409 and r12, r2, #0x1f {}
6404 6406 6408 6409 6410 ands r0, r3 {}
6406 6408 6409 6410 6412 ldr r3, [sp, #0x2c] {}
6408 6409 6410 6412 6414 ldr.w r0, [lr, r0, lsl #2] {}
6409 6410 6412 6414 6415 lsr.w r3, r2, r3 {}
6410 6412 6414 6415 6416 and r3, r3, #0x1f {}
6412 6414 6415 6416 6417 mov r2, r12 {}
6414 6415 6416 6417 6418 lsr.w r3, r0, r3 {}
6415 6416 6417 6418 6419 lsrs r0, r2 {}
6416 6417 6418 6419 6420 ands r3, r0 {}
6417 6418 6419 6420 6421 lsls r0, r3, #0x1f {}
6418 6419 6420 6421 6422 bmi.w #0x4007180 {}
6419 6420 6421 6422 6424 ldr.w r8, [sp, #0x28] {}
6420 6421 6424 6425 6426 mov r0, r8 {load-use}
6421 6424 6425 6426 6427 bl #0x40135a4 {}
6424 6425 6426 6427 6428 cmp r1, #0 {}
6425 6426 6427 6428 6429 beq #0x401359a {}
6426 6427 6428 6429 6431 push.w {r0, r1, lr} {}
6427 6428 6429 6431 6432 bl #0x4013348 {}
6428 6429 6431 6432 6433 subs r2, r1, #1 {}
6429 6431 6432 6433 6434 it eq {}
6431 6432 6433 6434 6435 bxeq lr {}
6432 6433 6434 6435 6436 blo.w #0x401359a {}
6433 6434 6435 6436 6437 cmp r0, r1 {}
6434 6435 6436 6437 6438 bls.w #0x4013584 {}
6435 6436 6437 6438 6439 tst r1, r2 {}
6436 6437 6438 6439 6440 beq.w #0x401358c {}
6437 6438 6439 6440 6441 clz r3, r0 {}
6438 6439 6440 6441 6442 clz r2, r1 {}
6439 6440 6441 6442 6443 sub.w r3, r2, r3 {}
6440 6441 6442 6443 6444 rsb.w r3, r3, #0x1f {}
6441 6442 6443 6444 6445 adr r2, #0x10 {}
6442 6443 6444 6445 6446 add.w r3, r2, r3, lsl #4 {}
6443 6444 6445 6446 6447 mov.w r2, #0 {}
6444 6445 6446 6447 6448 mov pc, r3 {bmispred}
6447 6448 6449 6450 6451 cmp.w r0, r1, lsl #20 {}
6448 6449 6450 6451 6452 nop  {}
6449 6450 6451 6452 6453 adc.w r2, r2, r2 {}
6450 6451 6452 6453 6454 it hs {}
6451 6452 6453 6454 6455 subhs.w r0, r0, r1, lsl #20 {}
6452 6453 6454 6455 6456 cmp.w r0, r1, lsl #19 {}
6453 6454 6455 6456 6457 nop  {}
6454 6455 6456 6457 6458 adc.w r2, r2, r2 {}
6455 6456 6457 6458 6459 it hs {}
6456 6457 6458 6459 6460 subhs.w r0, r0, r1, lsl #19 {}
6457 6458 6459 6460 6461 cmp.w r0, r1, lsl #18 {}
6458 6459 6460 6461 6462 nop  {}
6459 6460 6461 6462 6463 adc.w r2, r2, r2 {}
6460 6461 6462 6463 6464 it hs {}
6461 6462 6463 6464 6465 subhs.w r0, r0, r1, lsl #18 {}
6462 6463 6464 6465 6466 cmp.w r0, r1, lsl #17 {}
6463 6464 6465 6466 6467 nop  {}
6464 6465 6466 6467 6468 adc.w r2, r2, r2 {}
6465 6466 6467 6468 6469 it hs {}
6466 6467 6468 6469 6470 subhs.w r0, r0, r1, lsl #17 {}
6467 6468 6469 6470 6471 cmp.w r0, r1, lsl #16 {}
6468 6469 6470 6471 6472 nop  {}
6469 6470 6471 6472 6473 adc.w r2, r2, r2 {}
6470 6471 6472 6473 6474 it hs {}
6471 6472 6473 6474 6475 subhs.w r0, r0, r1, lsl #16 {}
6472 6473 6474 6475 6476 cmp.w r0, r1, lsl #15 {}
6473 6474 6475 6476 6477 nop  {}
6474 6475 6476 6477 6478 adc.w r2, r2, r2 {}
6475 6476 6477 6478 6479 it hs {}
6476 6477 6478 6479 6480 subhs.w r0, r0, r1, lsl #15 {}
6477 6478 6479 6480 6481 cmp.w r0, r1, lsl #14 {}
6478 6479 6480 6481 6482 nop  {}
6479 6480 6481 6482 6483 adc.w r2, r2, r2 {}
6480 6481 6482 6483 6484 it hs {}
6481 6482 6483 6484 6485 subhs.w r0, r0, r1, lsl #14 {}
6482 6483 6484 6485 6486 cmp.w r0, r1, lsl #13 {}
6483 6484 6485 6486 6487 nop  {}
6484 6485 6486 6487 6488 adc.w r2, r2, r2 {}
6485 6486 6487 6488 6489 it hs {}
6486 6487 6488 6489 6490 subhs.w r0, r0, r1, lsl #13 {}
6487 6488 6489 6490 6491 cmp.w r0, r1, lsl #12 {}
6488 6489 6490 6491 6492 nop  {}
6489 6490 6491 6492 6493 adc.w r2, r2, r2 {}
6490 6491 6492 6493 6494 it hs {}
6491 6492 6493 6494 6495 subhs.w r0, r0, r1, lsl #12 {}
6492 6493 6494 6495 6496 cmp.w r0, r1, lsl #11 {}
6493 6494 6495 6496 6497 nop  {}
6494 6495 6496 6497 6498 adc.w r2, r2, r2 {}
6495 6496 6497 6498 6499 it hs {}
6496 6497 6498 6499 6500 subhs.w r0, r0, r1, lsl #11 {}
6497 6498 6499 6500 6501 cmp.w r0, r1, lsl #10 {}
6498 6499 6500 6501 6502 nop  {}
6499 6500 6501 6502 6503 adc.w r2, r2, r2 {}
6500 6501 6502 6503 6504 it hs {}
6501 6502 6503 6504 6505 subhs.w r0, r0, r1, lsl #10 {}
6502 6503 6504 6505 6506 cmp.w r0, r1, lsl #9 {}
6503 6504 6505 6506 6507 nop  {}
6504 6505 6506 6507 6508 adc.w r2, r2, r2 {}
6505 6506 6507 6508 6509 it hs {}
6506 6507 6508 6509 6510 subhs.w r0, r0, r1, lsl #9 {}
6507 6508 6509 6510 6511 cmp.w r0, r1, lsl #8 {}
6508 6509 6510 6511 6512 nop  {}
6509 6510 6511 6512 6513 adc.w r2, r2, r2 {}
6510 6511 6512 6513 6514 it hs {}
6511 6512 6513 6514 6515 subhs.w r0, r0, r1, lsl #8 {}
6512 6513 6514 6515 6516 cmp.w r0, r1, lsl #7 {}
6513 6514 6515 6516 6517 nop  {}
6514 6515 6516 6517 6518 adc.w r2, r2, r2 {}
6515 6516 6517 6518 6519 it hs {}
6516 6517 6518 6519 6520 subhs.w r0, r0, r1, lsl #7 {}
6517 6518 6519 6520 6521 cmp.w r0, r1, lsl #6 {}
6518 6519 6520 6521 6522 nop  {}
6519 6520 6521 6522 6523 adc.w r2, r2, r2 {}
6520 6521 6522 6523 6524 it hs {}
6521 6522 6523 6524 6525 subhs.w r0, r0, r1, lsl #6 {}
6522 6523 6524 6525 6526 cmp.w r0, r1, lsl #5 {}
6523 6524 6525 6526 6527 nop  {}
6524 6525 6526 6527 6528 adc.w r2, r2, r2 {}
6525 6526 6527 6528 6529 it hs {}
6526 6527 6528 6529 6530 subhs.w r0, r0, r1, lsl #5 {}
6527 6528 6529 6530 6531 cmp.w r0, r1, lsl #4 {}
6528 6529 6530 6531 6532 nop  {}
6529 6530 6531 6532 6533 adc.w r2, r2, r2 {}
6530 6531 6532 6533 6534 it hs {}
6531 6532 6533 6534 6535 subhs.w r0, r0, r1, lsl #4 {}
6532 6533 6534 6535 6536 cmp.w r0, r1, lsl #3 {}
6533 6534 6535 6536 6537 nop  {}
6534 6535 6536 6537 6538 adc.w r2, r2, r2 {}
6535 6536 6537 6538 6539 it hs {}
6536 6537 6538 6539 6540 subhs.w r0, r0, r1, lsl #3 {}
6537 6538 6539 6540 6541 cmp.w r0, r1, lsl #2 {}
6538 6539 6540 6541 6542 nop  {}
6539 6540 6541 6542 6543 adc.w r2, r2, r2 {}
6540 6541 6542 6543 6544 it hs {}
6541 6542 6543 6544 6545 subhs.w r0, r0, r1, lsl #2 {}
6542 6543 6544 6545 6546 cmp.w r0, r1, lsl #1 {}
6543 6544 6545 6546 6547 nop  {}
6544 6545 6546 6547 6548 adc.w r2, r2, r2 {}
6545 6546 6547 6548 6549 it hs {}
6546 6547 6548 6549 6550 subhs.w r0, r0, r1, lsl #1 {}
6547 6548 6549 6550 6551 cmp.w r0, r1 {}
6548 6549 6550 6551 6552 nop  {}
6549 6550 6551 6552 6553 adc.w r2, r2, r2 {}
6550 6551 6552 6553 6554 it hs {}
6551 6552 6553 6554 6555 subhs.w r0, r0, r1 {}
6552 6553 6554 6555 6556 mov r0, r2 {}
6553 6554 6555 6556 6557 bx lr {}
6554 6555 6556 6557 6559 pop.w {r1, r2, lr} {}
6555 6556 6557 6559 6560 mul r3, r2, r0 {}
6556 6557 6559 6560 6561 sub.w r1, r1, r3 {}
6557 6559 6560 6561 6562 bx lr {bmispred}
6561 6562 6563 6564 6566 ldr.w r3, [r4, #0x188] {}
6562 6563 6566 6567 6569 ldr.w r3, [r3, r1, lsl #2] {load-use}
6563 6566 6569 6570 6571 cmp r3, #0 {load-use}
6566 6569 6570 6571 6572 beq.w #0x4006e74 {}
6569 6570 6571 6572 6574 ldr.w r2, [r4, #0x18c] {}
6570 6571 6572 6574 6575 add r1, sp, #0x60 {}
6571 6572 6574 6575 6577 str.w r10, [sp, #0x54] {}
6572 6574 6575 6577 6578 add.w r3, r2, r3, lsl #2 {}
6574 6575 6577 6578 6580 str r1, [sp, #0x2c] {}
6575 6577 6578 6580 6582 str r6, [sp, #0x58] {}
6577 6578 6580 6582 6583 add r1, sp, #0x64 {}
6578 6580 6582 6583 6585 str r5, [sp, #0x98] {}
6580 6582 6583 6585 6586 mov r6, r3 {}
6582 6583 6585 6586 6588 str.w r9, [sp, #0xa4] {}
6583 6585 6586 6588 6589 mov r5, r4 {}
6585 6586 6588 6589 6591 str.w r11, [sp, #0x5c] {}
6586 6588 6589 6591 6593 str r1, [sp, #0x50] {}
6588 6589 6591 6593 6595 ldr.w r10, [sp, #0x3c] {}
6589 6591 6593 6595 6597 ldr.w r9, [sp, #0x38] {}
6591 6593 6595 6597 6599 ldr.w r11, [sp, #0x34] {}
6593 6595 6597 6599 6600 b #0x40071d4 {}
6595 6597 6599 6600 6602 ldr r3, [r6] {}
6597 6599 6602 6603 6604 eor.w r2, r8, r3 {load-use}
6599 6602 6603 6604 6605 lsrs r2, r2, #1 {}
6602 6603 6604 6605 6606 bne #0x40071ca {bmispred}
6605 6606 6607 6608 6609 lsls r1, r3, #0x1f {}
6606 6607 6608 6609 6610 add.w r6, r6, #4 {}
6607 6608 6609 6610 6611 bmi.w #0x4007382 {}
6608 6609 6610 6611 6613 ldr r3, [r6] {}
6609 6610 6613 6614 6615 eor.w r2, r8, r3 {load-use}
6610 6613 6614 6615 6616 lsrs r2, r2, #1 {}
6613 6614 6615 6616 6617 bne #0x40071ca {}
6614 6615 6616 6617 6618 lsls r1, r3, #0x1f {}
6615 6616 6617 6618 6619 add.w r6, r6, #4 {}
6616 6617 6618 6619 6620 bmi.w #0x4007382 {}
6617 6618 6619 6620 6622 ldr r3, [r6] {}
6618 6619 6622 6623 6624 eor.w r2, r8, r3 {load-use}
6619 6622 6623 6624 6625 lsrs r2, r2, #1 {}
6622 6623 6624 6625 6626 bne #0x40071ca {bmispred}
6625 6626 6627 6628 6630 ldr.w r4, [r5, #0x18c] {}
6626 6627 6628 6630 6632 ldr r2, [sp, #0x2c] {}
6627 6628 6630 6632 6633 subs r4, r6, r4 {}
6628 6630 6632 6633 6635 ldr r1, [sp, #0x50] {}
6630 6632 6633 6635 6637 ldr r0, [sp, #0x24] {}
6632 6633 6635 6637 6638 asrs r4, r4, #2 {}
6633 6635 6637 6638 6640 str r2, [sp, #0x18] {}
6635 6637 6638 6640 6642 str r1, [sp, #0x14] {}
6637 6638 6640 6642 6643 mov r1, r10 {}
6638 6640 6642 6643 6645 str r0, [sp, #0xc] {}
6640 6642 6643 6645 6646 add.w lr, r9, r4, lsl #4 {}
6642 6643 6645 6646 6648 ldr r3, [sp, #0xa0] {}
6643 6645 6646 6648 6649 mov r0, r11 {}
6645 6646 6648 6649 6651 ldr r2, [sp, #0x9c] {}
6646 6648 6649 6651 6653 str r5, [sp, #0x10] {}
6648 6649 6651 6653 6655 str r4, [sp, #8] {}
6649 6651 6653 6655 6657 str r7, [sp] {}
6651 6653 6655 6657 6659 str.w lr, [sp, #4] {}
6653 6655 6657 6659 6660 bl #0x4006c98 {bmispred}
6658 6659 6660 6661 6663 push.w {r3, r4, r5, r6, r7, r8, r9, lr} {}
6659 6660 6661 6663 6665 ldr r4, [sp, #0x24] {}
6660 6661 6663 6665 6667 ldr.w r9, [sp, #0x30] {}
6661 6663 6665 6667 6669 ldrb r5, [r4, #0xc] {}
6663 6665 6667 6669 6671 ldr r6, [r4, #4] {}
6665 6667 6669 6671 6672 and r5, r5, #0xf {}
6667 6669 6671 6672 6673 clz r6, r6 {}
6669 6671 6672 6673 6674 cmp r5, #6 {}
6671 6672 6673 6674 6675 lsr.w r6, r6, #5 {}
6672 6673 6674 6675 6676 it eq {}
6673 6674 6675 6676 6677 moveq r6, #0 {}
6674 6675 6676 6677 6678 cmp r6, #0 {}
6675 6676 6677 6678 6679 bne #0x4006d5a {}
6676 6677 6678 6679 6681 ldrh r6, [r4, #0xe] {}
6677 6678 6679 6681 6683 ldr r7, [sp, #0x20] {}
6678 6679 6681 6683 6684 cmp r6, #0 {}
6679 6681 6683 6684 6685 ite ne {}
6681 6683 6684 6685 6686 movne r7, #0 {}
6683 6684 6685 6686 6687 andeq r7, r7, #1 {}
6684 6685 6686 6687 6688 cmp r7, #0 {}
6685 6686 6687 6688 6689 bne #0x4006d5a {}
6686 6687 6688 6689 6690 movw r6, #0x467 {}
6687 6688 6689 6690 6691 asr.w r5, r6, r5 {}
6688 6689 6690 6691 6692 lsls r5, r5, #0x1f {}
6689 6690 6691 6692 6693 bpl #0x4006d5a {}
6690 6691 6692 6693 6694 mov r6, r3 {}
6691 6692 6693 6694 6695 mov r3, r1 {}
6692 6693 6694 6695 6696 cmp r4, r3 {}
6693 6694 6695 6696 6697 mov r5, r2 {}
6694 6695 6696 6697 6698 mov r1, r0 {}
6695 6696 6697 6698 6699 beq #0x4006cf4 {bmispred}
6698 6699 6700 6701 6703 ldr.w r3, [r9, #0x1a4] {}
6699 6700 6701 6703 6704 cbz r5, #0x4006d2e {}
6700 6701 6703 6704 6705 cmp r3, #0 {}
6701 6703 6704 6705 6706 beq #0x4006d6e {}
6703 6704 6705 6706 6708 ldr r2, [sp, #0x28] {}
6704 6705 6706 6708 6710 ldr r1, [r5, #4] {}
6705 6706 6708 6710 6712 ldrh.w r8, [r3, r2, lsl #1] {}
6706 6708 6710 6712 6714 ldr.w r2, [r9, #0x170] {}
6708 6710 6712 6714 6715 ubfx r3, r8, #0, #0xf {}
6710 6712 6714 6715 6716 lsls r3, r3, #4 {}
6712 6714 6715 6716 6717 adds r0, r2, r3 {}
6714 6715 6716 6717 6719 ldr r6, [r0, #4] {}
6715 6716 6719 6720 6721 cmp r6, r1 {load-use}
6716 6719 6720 6721 6722 beq #0x4006d60 {bmispred}
6721 6722 6723 6724 6726 ldr r0, [r2, r3] {}
6722 6723 6724 6726 6728 ldr r1, [r5] {}
6723 6724 6726 6728 6729 bl #0x4012090 {bmispred}
6727 6728 6729 6730 6732 ldrb r2, [r0] {}
6728 6729 6730 6732 6734 ldrb r3, [r1] {}
6729 6730 6732 6734 6735 cmp r2, #1 {}
6730 6732 6734 6735 6736 it hs {}
6732 6734 6735 6736 6737 cmphs r2, r3 {}
6734 6735 6736 6737 6738 bne #0x4012080 {}
6735 6736 6737 6738 6740 strd r4, r5, [sp, #-0x10]! {}
6736 6737 6738 6740 6741 orr.w r4, r0, r1 {}
6737 6738 6740 6741 6743 strd r6, r7, [sp, #8] {}
6738 6740 6741 6743 6744 mvn r12, #0 {}
6740 6741 6743 6744 6745 lsl.w r2, r4, #0x1d {}
6741 6743 6744 6745 6746 cbz r2, #0x4012100 {}
6743 6744 6745 6746 6747 eor.w r4, r0, r1 {}
6744 6745 6746 6747 6748 tst.w r4, #7 {}
6745 6746 6747 6748 6749 bne #0x401219a {}
6746 6747 6748 6749 6750 and r4, r0, #7 {}
6747 6748 6749 6750 6751 bic r0, r0, #7 {}
6748 6749 6750 6751 6752 and r5, r4, #3 {}
6749 6750 6751 6752 6753 bic r1, r1, #7 {}
6750 6751 6752 6753 6754 lsl.w r5, r5, #3 {}
6751 6752 6753 6754 6756 ldrd r2, r3, [r0], #0x10 {}
6752 6753 6754 6756 6757 tst.w r4, #4 {}
6753 6754 6756 6757 6759 ldrd r6, r7, [r1], #0x10 {}
6754 6756 6757 6759 6760 lsl.w r4, r12, r5 {}
6756 6757 6759 6760 6761 orn r2, r2, r4 {}
6757 6759 6760 6761 6762 orn r6, r6, r4 {}
6759 6760 6761 6762 6763 beq #0x4012108 {bmispred}
6762 6763 6764 6765 6766 uadd8 r5, r2, r12 {}
6763 6764 6765 6766 6767 eor.w r4, r2, r6 {}
6764 6765 6766 6767 6768 sel r4, r4, r12 {}
6765 6766 6767 6768 6769 cbnz r4, #0x4012172 {}
6766 6767 6768 6769 6770 uadd8 r5, r3, r12 {}
6767 6768 6769 6770 6771 eor.w r5, r3, r7 {}
6768 6769 6770 6771 6772 sel r5, r5, r12 {}
6769 6770 6771 6772 6773 cbnz r5, #0x401214a {}
6770 6771 6772 6773 6775 ldrd r2, r3, [r0, #-0x8] {}
6771 6772 6773 6775 6777 ldrd r6, r7, [r1, #-0x8] {}
6772 6773 6775 6777 6778 uadd8 r5, r2, r12 {}
6773 6775 6777 6778 6779 eor.w r4, r2, r6 {}
6775 6777 6778 6779 6780 sel r4, r4, r12 {}
6777 6778 6779 6780 6781 uadd8 r5, r3, r12 {}
6778 6779 6780 6781 6782 eor.w r5, r3, r7 {}
6779 6780 6781 6782 6783 sel r5, r5, r12 {}
6780 6781 6782 6783 6784 orrs r5, r4 {}
6781 6782 6783 6784 6785 beq #0x4012100 {}
6782 6783 6784 6785 6786 cbnz r4, #0x4012172 {}
6783 6784 6785 6786 6787 rev r5, r5 {}
6784 6785 6786 6787 6788 clz r4, r5 {}
6785 6786 6787 6788 6789 bic r4, r4, #7 {}
6786 6787 6788 6789 6790 lsr.w r1, r7, r4 {}
6787 6788 6789 6790 6792 ldrd r6, r7, [sp, #8] {}
6788 6789 6790 6792 6793 lsr.w r3, r3, r4 {}
6789 6790 6792 6793 6794 and r0, r3, #0xff {}
6790 6792 6793 6794 6795 and r1, r1, #0xff {}
6792 6793 6794 6795 6797 ldrd r4, r5, [sp], #0x10 {}
6793 6794 6795 6797 6798 sub.w r0, r0, r1 {}
6794 6795 6797 6798 6799 bx lr {bmispred}
6798 6799 6800 6801 6802 cmp r0, #0 {}
6799 6800 6801 6802 6803 bne #0x4006d18 {}
6800 6801 6802 6803 6804 b #0x4006d28 {bmispred}
6803 6804 6805 6806 6807 mov r0, r4 {}
6804 6805 6806 6807 6809 pop.w {r3, r4, r5, r6, r7, r8, r9, pc} {bmispred}
6807 6808 6809 6810 6811 cmp r0, #0 {}
6808 6809 6810 6811 6812 bne.w #0x40074e6 {bmispred}
6811 6812 6813 6814 6815 mov r8, r4 {}
6812 6813 6814 6815 6816 mov r3, r0 {}
6813 6814 6815 6816 6817 mov r4, r5 {}
6814 6815 6816 6817 6819 ldr.w r10, [sp, #0x54] {}
6815 6816 6817 6819 6821 ldr r6, [sp, #0x58] {}
6816 6817 6819 6821 6823 ldr r5, [sp, #0x98] {}
6817 6819 6821 6823 6825 ldr.w r9, [sp, #0xa4] {}
6819 6821 6823 6825 6827 ldr.w r11, [sp, #0x5c] {}
6821 6823 6825 6827 6828 b #0x4006f60 {bmispred}
6826 6827 6828 6829 6831 ldr r2, [sp, #0xac] {}
6827 6828 6831 6832 6833 cmp r2, #0 {load-use}
6828 6831 6832 6833 6834 beq.w #0x40070da {}
6831 6832 6833 6834 6836 ldrb r2, [r3, #0xc] {}
6832 6833 6836 6837 6838 lsrs r2, r2, #4 {load-use}
6833 6836 6837 6838 6839 cmp r2, #2 {}
6836 6837 6838 6839 6840 beq #0x4006f82 {}
6837 6838 6839 6840 6841 cmp r2, #0xa {}
6838 6839 6840 6841 6842 beq #0x4006f9a {}
6839 6840 6841 6842 6843 cmp r2, #1 {}
6840 6841 6842 6843 6844 beq #0x4006f8c {bmispred}
6843 6844 6845 6846 6848 ldr r2, [sp, #0x90] {}
6844 6845 6846 6848 6849 movs r0, #1 {}
6845 6846 6848 6849 6851 str r3, [r2] {}
6846 6848 6849 6851 6853 str r4, [r2, #4] {}
6848 6849 6851 6853 6854 add sp, #0x6c {}
6849 6851 6853 6854 6856 pop.w {r4, r5, r6, r7, r8, r9, r10, r11, pc} {bmispred}
6854 6855 6856 6857 6858 subs r2, r0, #0 {}
6855 6856 6857 6858 6859 ble #0x400763a {}
6856 6857 6858 6859 6861 ldr r3, [r7, #0x28] {}
6857 6858 6859 6861 6863 str.w r4, [r7, #0x8c] {}
6858 6859 6861 6863 6864 mov r4, r8 {}
6859 6861 6863 6864 6866 ldr.w r8, [r7, #0x8c] {}
6861 6863 6864 6866 6867 cmp r3, #0 {}
6863 6864 6866 6867 6868 beq.w #0x40078f8 {}
6864 6866 6867 6868 6870 ldr.w r3, [r10] {}
6866 6867 6870 6871 6872 cbz r3, #0x40076b0 {load-use}
6867 6870 6871 6872 6874 ldrb r2, [r3, #0xd] {}
6870 6871 6874 6875 6876 and r2, r2, #3 {load-use}
6871 6874 6875 6876 6877 cmp r2, #3 {}
6874 6875 6876 6877 6878 beq #0x40076ec {}
6875 6876 6877 6878 6880 ldr r4, [r7, #0x2c] {}
6876 6877 6878 6880 6881 movs r5, #0 {}
6877 6878 6880 6881 6883 ldrb.w r3, [r4, #0x194] {}
6878 6880 6883 6884 6885 and r3, r3, #3 {load-use}
6880 6883 6884 6885 6886 cmp r3, #2 {}
6883 6884 6885 6886 6887 beq #0x40077a8 {}
6884 6885 6886 6887 6888 mov r0, r4 {}
6885 6886 6887 6888 6890 ldr.w r3, [r0, #0x1fc] {}
6886 6887 6890 6891 6892 cmp r3, #0 {load-use}
6887 6890 6891 6892 6893 beq.w #0x4007a54 {}
6890 6891 6892 6893 6895 ldr.w r3, [pc, #0xa54] {}
6891 6892 6893 6895 6896 movw r2, #0x804 {}
6892 6893 6895 6896 6897 add r3, pc {}
6893 6895 6896 6897 6899 ldr r3, [r3] {}
6895 6896 6899 6900 6901 tst r3, r2 {load-use}
6896 6899 6900 6901 6902 bne.w #0x400791e {}
6899 6900 6901 6902 6904 ldr r1, [r7, #0x28] {}
6900 6901 6902 6904 6906 str.w r1, [r10] {}
6901 6902 6904 6906 6907 adds r7, #0x5c {}
6902 6904 6906 6907 6908 mov sp, r7 {}
6904 6906 6907 6908 6910 pop.w {r4, r5, r6, r7, r8, r9, r10, r11, pc} {bmispred}
6908 6909 6910 6911 6913 ldr r3, [r7, #0x54] {}
6909 6910 6911 6913 6915 str.w r3, [r6, #0x224] {}
6910 6911 6913 6915 6916 mov r2, r0 {}
6911 6913 6915 6916 6918 str.w r0, [r6, #0x220] {}
6913 6915 6916 6918 6919 cmp r2, #0 {}
6915 6916 6918 6919 6920 beq.w #0x4008e00 {}
6916 6918 6919 6920 6922 ldr r0, [r2] {}
6918 6919 6920 6922 6924 ldr r1, [r3, #4] {}
6919 6920 6924 6925 6926 adds r1, r0, r1 {load-use}
6920 6924 6925 6926 6928 str r1, [r7, #0x3c] {}
6924 6925 6926 6928 6930 ldrb r1, [r3, #0xc] {}
6925 6926 6930 6931 6932 and r1, r1, #0xf {load-use}
6926 6930 6931 6932 6933 cmp r1, #0xa {}
6930 6931 6932 6933 6934 beq.w #0x4009094 {}
6931 6932 6933 6934 6935 cmp r5, #0x12 {}
6932 6933 6934 6935 6936 beq.w #0x400907a {}
6933 6934 6935 6936 6937 bhi #0x4008d1a {bmispred}
6936 6937 6938 6939 6940 cmp r5, #0x16 {}
6937 6938 6939 6940 6941 bhi.w #0x4008e42 {}
6938 6939 6940 6941 6942 cmp r5, #0x15 {}
6939 6940 6941 6942 6943 bhs.w #0x4009024 {bmispred}
6942 6943 6944 6945 6947 ldr r3, [r7, #0x3c] {}
6943 6944 6945 6947 6948 add.w r10, r10, #8 {}
6944 6945 6947 6948 6950 str.w r3, [r9, r8] {}
6945 6947 6948 6950 6952 ldr r3, [r7, #0x2c] {}
6947 6948 6952 6953 6954 cmp r3, r10 {load-use}
6948 6952 6953 6954 6955 bhi.w #0x4008c0a {bmispred}
6954 6955 6956 6957 6959 ldr.w r5, [r10, #4] {}
6955 6956 6957 6959 6961 ldr.w r8, [r10] {}
6956 6957 6959 6961 6963 ldr.w r1, [r6, #0x170] {}
6957 6959 6961 6963 6964 add.w r2, r9, r8 {}
6959 6961 6963 6964 6966 str r2, [r7, #0x48] {}
6961 6963 6964 6966 6968 ldr r2, [r7, #0x34] {}
6963 6964 6966 6968 6969 lsrs r3, r5, #8 {}
6964 6966 6968 6969 6970 uxtb r5, r5 {}
6966 6968 6969 6970 6971 lsl.w r11, r3, #4 {}
6968 6969 6970 6971 6972 cmp r5, #0x17 {}
6969 6970 6971 6972 6974 ldrh.w r3, [r2, r3, lsl #1] {}
6970 6971 6972 6974 6976 ldr r2, [r7, #0x4c] {}
6971 6972 6976 6977 6978 add.w r4, r2, r11 {load-use}
6972 6976 6977 6978 6980 str r4, [r7, #0x54] {}
6976 6977 6978 6980 6981 beq.w #0x4008e66 {}
6977 6978 6980 6981 6982 cmp r5, #0 {}
6978 6980 6981 6982 6983 beq #0x4008d06 {}
6980 6981 6982 6983 6985 ldrb r2, [r4, #0xc] {}
6981 6982 6985 6986 6987 lsrs r2, r2, #4 {load-use}
6982 6985 6986 6987 6988 beq #0x4008d14 {}
6985 6986 6987 6988 6990 ldr.w r2, [r6, #0x218] {}
6986 6987 6990 6991 6992 cmp r4, r2 {load-use}
6987 6990 6991 6992 6993 beq.w #0x400919c {}
6990 6991 6992 6993 6994 cmp r5, #0x11 {}
6991 6992 6993 6994 6995 it ne {}
6992 6993 6994 6995 6996 cmpne r5, #0x16 {}
6993 6994 6995 6996 6997 it eq {}
6994 6995 6996 6997 6998 moveq r2, #1 {}
6995 6996 6997 6998 6999 beq #0x4008c68 {}
6996 6997 6998 6999 7000 sub.w r2, r5, #0x12 {}
6997 6998 6999 7000 7001 cmp r5, #0xd {}
6998 6999 7000 7001 7002 it ne {}
6999 7000 7001 7002 7003 cmpne r2, #1 {}
7000 7001 7002 7003 7004 ite ls {}
7001 7002 7003 7004 7005 movls r2, #1 {}
7002 7003 7004 7005 7006 movhi r2, #0 {}
7003 7004 7005 7006 7007 cmp r5, #0x14 {}
7004 7005 7006 7007 7008 beq.w #0x4008e34 {}
7005 7006 7007 7008 7009 cmp r5, #0x15 {}
7006 7007 7008 7009 7010 ite ne {}
7007 7008 7009 7010 7011 movne r0, #0 {}
7008 7009 7010 7011 7012 moveq r0, #4 {}
7009 7010 7011 7012 7013 ubfx r3, r3, #0, #0xf {}
7010 7011 7012 7013 7014 orrs r2, r0 {}
7011 7012 7013 7014 7016 str.w r4, [r6, #0x218] {}
7012 7013 7014 7016 7017 adds.w r3, r1, r3, lsl #4 {}
7013 7014 7016 7017 7019 str.w r2, [r6, #0x21c] {}
7014 7016 7017 7019 7020 beq #0x4008c92 {}
7016 7017 7019 7020 7022 ldr r1, [r3, #4] {}
7017 7019 7022 7023 7024 cmp r1, #0 {load-use}
7019 7022 7023 7024 7025 it eq {}
7022 7023 7024 7025 7026 moveq r3, #0 {}
7023 7024 7025 7026 7028 ldr r1, [r7, #0x4c] {}
7024 7025 7026 7028 7029 mov.w lr, #1 {}
7025 7026 7028 7029 7031 ldr.w r0, [r1, r11] {}
7026 7028 7029 7031 7032 movs r1, #0 {}
7028 7029 7031 7032 7034 str r2, [sp, #4] {}
7029 7031 7032 7034 7036 ldr r2, [r7, #0x30] {}
7031 7032 7034 7036 7038 str r3, [sp] {}
7032 7034 7036 7038 7039 add r0, r2 {}
7034 7036 7038 7039 7041 str r1, [sp, #0xc] {}
7036 7038 7039 7041 7043 ldr r3, [r7, #0x44] {}
7038 7039 7041 7043 7044 add.w r2, r7, #0x54 {}
7039 7041 7043 7044 7046 str.w lr, [sp, #8] {}
7041 7043 7044 7046 7047 mov r1, r6 {}
7043 7044 7046 7047 7048 bl #0x40075a0 {bmispred}
7047 7048 7049 7050 7052 push.w {r4, r5, r6, r7, r8, r9, r10, r11, lr} {}
7048 7049 7050 7052 7053 mov r6, r1 {}
7049 7050 7052 7053 7054 sub sp, #0x7c {}
7050 7052 7053 7054 7056 ldrb r1, [r0] {}
7052 7053 7054 7056 7057 add r7, sp, #0x20 {}
7053 7054 7056 7057 7058 mov r9, r0 {}
7054 7056 7057 7058 7059 mov r10, r2 {}
7056 7057 7058 7059 7061 str r3, [r7, #0x10] {}
7057 7058 7059 7061 7063 ldr.w r11, [r7, #0x80] {}
7058 7059 7061 7063 7065 ldr.w r8, [r7, #0x8c] {}
7059 7061 7063 7065 7066 cmp r1, #0 {}
7061 7063 7065 7066 7067 beq.w #0x4007918 {}
7063 7065 7066 7067 7068 mov r3, r0 {}
7065 7066 7067 7068 7069 movw r4, #0x1505 {}
7066 7067 7068 7069 7070 add.w r4, r4, r4, lsl #5 {}
7067 7068 7069 7070 7071 add r4, r1 {}
7068 7069 7070 7071 7073 ldrb r1, [r3, #1]! {}
7069 7070 7073 7074 7075 cmp r1, #0 {load-use}
7070 7073 7074 7075 7076 bne #0x40075c6 {}
7073 7074 7075 7076 7077 add.w r4, r4, r4, lsl #5 {}
7074 7075 7076 7077 7078 add r4, r1 {}
7075 7076 7077 7078 7080 ldrb r1, [r3, #1]! {}
7076 7077 7080 7081 7082 cmp r1, #0 {load-use}
7077 7080 7081 7082 7083 bne #0x40075c6 {}
7080 7081 7082 7083 7084 add.w r4, r4, r4, lsl #5 {}
7081 7082 7083 7084 7085 add r4, r1 {}
7082 7083 7084 7085 7087 ldrb r1, [r3, #1]! {}
7083 7084 7087 7088 7089 cmp r1, #0 {load-use}
7084 7087 7088 7089 7090 bne #0x40075c6 {}
7087 7088 7089 7090 7091 add.w r4, r4, r4, lsl #5 {}
7088 7089 7090 7091 7092 add r4, r1 {}
7089 7090 7091 7092 7094 ldrb r1, [r3, #1]! {}
7090 7091 7094 7095 7096 cmp r1, #0 {load-use}
7091 7094 7095 7096 7097 bne #0x40075c6 {}
7094 7095 7096 7097 7098 add.w r4, r4, r4, lsl #5 {}
7095 7096 7097 7098 7099 add r4, r1 {}
7096 7097 7098 7099 7101 ldrb r1, [r3, #1]! {}
7097 7098 7101 7102 7103 cmp r1, #0 {load-use}
7098 7101 7102 7103 7104 bne #0x40075c6 {}
7101 7102 7103 7104 7105 add.w r4, r4, r4, lsl #5 {}
7102 7103 7104 7105 7106 add r4, r1 {}
7103 7104 7105 7106 7108 ldrb r1, [r3, #1]! {}
7104 7105 7108 7109 7110 cmp r1, #0 {load-use}
7105 7108 7109 7110 7111 bne #0x40075c6 {}
7108 7109 7110 7111 7112 add.w r4, r4, r4, lsl #5 {}
7109 7110 7111 7112 7113 add r4, r1 {}
7110 7111 7112 7113 7115 ldrb r1, [r3, #1]! {}
7111 7112 7115 7116 7117 cmp r1, #0 {load-use}
7112 7115 7116 7117 7118 bne #0x40075c6 {}
7115 7116 7117 7118 7119 add.w r4, r4, r4, lsl #5 {}
7116 7117 7118 7119 7120 add r4, r1 {}
7117 7118 7119 7120 7122 ldrb r1, [r3, #1]! {}
7118 7119 7122 7123 7124 cmp r1, #0 {load-use}
7119 7122 7123 7124 7125 bne #0x40075c6 {}
7122 7123 7124 7125 7126 add.w r4, r4, r4, lsl #5 {}
7123 7124 7125 7126 7127 add r4, r1 {}
7124 7125 7126 7127 7129 ldrb r1, [r3, #1]! {}
7125 7126 7129 7130 7131 cmp r1, #0 {load-use}
7126 7129 7130 7131 7132 bne #0x40075c6 {}
7129 7130 7131 7132 7133 add.w r4, r4, r4, lsl #5 {}
7130 7131 7132 7133 7134 add r4, r1 {}
7131 7132 7133 7134 7136 ldrb r1, [r3, #1]! {}
7132 7133 7136 7137 7138 cmp r1, #0 {load-use}
7133 7136 7137 7138 7139 bne #0x40075c6 {}
7136 7137 7138 7139 7140 add.w r4, r4, r4, lsl #5 {}
7137 7138 7139 7140 7141 add r4, r1 {}
7138 7139 7140 7141 7143 ldrb r1, [r3, #1]! {}
7139 7140 7143 7144 7145 cmp r1, #0 {load-use}
7140 7143 7144 7145 7146 bne #0x40075c6 {}
7143 7144 7145 7146 7147 add.w r4, r4, r4, lsl #5 {}
7144 7145 7146 7147 7148 add r4, r1 {}
7145 7146 7147 7148 7150 ldrb r1, [r3, #1]! {}
7146 7147 7150 7151 7152 cmp r1, #0 {load-use}
7147 7150 7151 7152 7153 bne #0x40075c6 {}
7150 7151 7152 7153 7154 add.w r4, r4, r4, lsl #5 {}
7151 7152 7153 7154 7155 add r4, r1 {}
7152 7153 7154 7155 7157 ldrb r1, [r3, #1]! {}
7153 7154 7157 7158 7159 cmp r1, #0 {load-use}
7154 7157 7158 7159 7160 bne #0x40075c6 {}
7157 7158 7159 7160 7161 add.w r4, r4, r4, lsl #5 {}
7158 7159 7160 7161 7162 add r4, r1 {}
7159 7160 7161 7162 7164 ldrb r1, [r3, #1]! {}
7160 7161 7164 7165 7166 cmp r1, #0 {load-use}
7161 7164 7165 7166 7167 bne #0x40075c6 {}
7164 7165 7166 7167 7168 add.w r4, r4, r4, lsl #5 {}
7165 7166 7167 7168 7169 add r4, r1 {}
7166 7167 7168 7169 7171 ldrb r1, [r3, #1]! {}
7167 7168 7171 7172 7173 cmp r1, #0 {load-use}
7168 7171 7172 7173 7174 bne #0x40075c6 {}
7171 7172 7173 7174 7175 add.w r4, r4, r4, lsl #5 {}
7172 7173 7174 7175 7176 add r4, r1 {}
7173 7174 7175 7176 7178 ldrb r1, [r3, #1]! {}
7174 7175 7178 7179 7180 cmp r1, #0 {load-use}
7175 7178 7179 7180 7181 bne #0x40075c6 {}
7178 7179 7180 7181 7182 add.w r4, r4, r4, lsl #5 {}
7179 7180 7181 7182 7183 add r4, r1 {}
7180 7181 7182 7183 7185 ldrb r1, [r3, #1]! {}
7181 7182 7185 7186 7187 cmp r1, #0 {load-use}
7182 7185 7186 7187 7188 bne #0x40075c6 {}
7185 7186 7187 7188 7189 add.w r4, r4, r4, lsl #5 {}
7186 7187 7188 7189 7190 add r4, r1 {}
7187 7188 7189 7190 7192 ldrb r1, [r3, #1]! {}
7188 7189 7192 7193 7194 cmp r1, #0 {load-use}
7189 7192 7193 7194 7195 bne #0x40075c6 {}
7192 7193 7194 7195 7196 add.w r4, r4, r4, lsl #5 {}
7193 7194 7195 7196 7197 add r4, r1 {}
7194 7195 7196 7197 7199 ldrb r1, [r3, #1]! {}
7195 7196 7199 7200 7201 cmp r1, #0 {load-use}
7196 7199 7200 7201 7202 bne #0x40075c6 {}
7199 7200 7201 7202 7203 add.w r4, r4, r4, lsl #5 {}
7200 7201 7202 7203 7204 add r4, r1 {}
7201 7202 7203 7204 7206 ldrb r1, [r3, #1]! {}
7202 7203 7206 7207 7208 cmp r1, #0 {load-use}
7203 7206 7207 7208 7209 bne #0x40075c6 {}
7206 7207 7208 7209 7210 add.w r4, r4, r4, lsl #5 {}
7207 7208 7209 7210 7211 add r4, r1 {}
7208 7209 7210 7211 7213 ldrb r1, [r3, #1]! {}
7209 7210 7213 7214 7215 cmp r1, #0 {load-use}
7210 7213 7214 7215 7216 bne #0x40075c6 {}
7213 7214 7215 7216 7217 add.w r4, r4, r4, lsl #5 {}
7214 7215 7216 7217 7218 add r4, r1 {}
7215 7216 7217 7218 7220 ldrb r1, [r3, #1]! {}
7216 7217 7220 7221 7222 cmp r1, #0 {load-use}
7217 7220 7221 7222 7223 bne #0x40075c6 {}
7220 7221 7222 7223 7224 add.w r4, r4, r4, lsl #5 {}
7221 7222 7223 7224 7225 add r4, r1 {bmispred}
